(dp1
S'group_id'
p2
(dp3
S'type'
p4
S'reference auth_group'
p5
sS'sortable'
p6
I3
sS'sql'
p7
S'INT, INDEX group_id__idx (group_id), FOREIGN KEY (group_id) REFERENCES auth_group(id) ON DELETE CASCADE'
p8
ssS'user_id'
p9
(dp10
g4
S'reference auth_user'
p11
sg6
I2
sg7
S'INT, INDEX user_id__idx (user_id), FOREIGN KEY (user_id) REFERENCES auth_user(id) ON DELETE CASCADE'
p12
ssS'id'
p13
(dp14
g4
g13
sg6
I1
sg7
S'INT AUTO_INCREMENT NOT NULL'
p15
ss.