(dp1
S'first_name'
p2
(dp3
S'type'
p4
S'string'
p5
sS'sortable'
p6
I2
sS'sql'
p7
S'CHAR(128)'
p8
ssS'last_name'
p9
(dp10
g4
g5
sg6
I3
sg7
S'CHAR(128)'
p11
ssS'email'
p12
(dp13
g4
g5
sg6
I4
sg7
S'CHAR(512)'
p14
ssS'reset_password_key'
p15
(dp16
g4
g5
sg6
I7
sg7
S'CHAR(512)'
p17
ssS'password'
p18
(dp19
g4
g18
sg6
I5
sg7
S'CHAR(512)'
p20
ssS'registration_key'
p21
(dp22
g4
g5
sg6
I6
sg7
S'CHAR(512)'
p23
ssS'id'
p24
(dp25
g4
g24
sg6
I1
sg7
S'INTEGER PRIMARY KEY AUTOINCREMENT'
p26
ss.