(dp1
S'output'
p2
S''
sS'layer'
p3
S'/home/nekro/Devel/myprojects/web2py/base/applications/admin/controllers/default.py'
p4
sS'code'
p5
S'# coding: utf8\n\nfrom gluon.admin import *\nfrom gluon.fileutils import abspath\nfrom glob import glob\nimport shutil\nimport platform\n\nif DEMO_MODE and request.function in [\'change_password\',\'pack\',\'pack_plugin\',\'upgrade_web2py\',\'uninstall\',\'cleanup\',\'compile_app\',\'remove_compiled_app\',\'delete\',\'delete_plugin\',\'create_file\',\'upload_file\',\'update_languages\',\'reload_routes\']:\n    session.flash = T(\'disabled in demo mode\')\n    redirect(URL(\'site\'))\n\nif not is_manager() and request.function in [\'change_password\',\'upgrade_web2py\']:\n    session.flash = T(\'disabled in multi user mode\')\n    redirect(URL(\'site\'))\n\nif FILTER_APPS and request.args(0) and not request.args(0) in FILTER_APPS:\n    session.flash = T(\'disabled in demo mode\')\n    redirect(URL(\'site\'))\n\ndef safe_open(a,b):\n    if DEMO_MODE and \'w\' in b:\n        class tmp:\n            def write(self,data): pass\n        return tmp()\n    return open(a,b)\n\ndef get_app(name=None):\n    app = name or request.args(0)\n    if not MULTI_USER_MODE or db(db.app.name==app)(db.app.owner==auth.user.id).count():\n        return app\n    session.flash = \'App does not exist or your are not authorized\'\n    redirect(URL(\'site\'))\n\ndef index():\n    """ Index handler """\n\n    send = request.vars.send\n    if DEMO_MODE:\n        session.authorized = True\n        session.last_time = t0\n    if not send:\n        send = URL(\'site\')\n    if session.authorized:\n        redirect(send)\n    elif request.vars.password:\n        if verify_password(request.vars.password):\n            session.authorized = True\n\n            if CHECK_VERSION:\n                session.check_version = True\n            else:\n                session.check_version = False\n\n            session.last_time = t0\n            if isinstance(send, list):  # ## why does this happen?\n                send = str(send[0])\n\n            redirect(send)\n        else:\n            response.flash = T(\'invalid password\')\n\n    return dict(send=send)\n\n\ndef check_version():\n    """ Checks if web2py is up to date """\n\n    session.forget()\n    session._unlock(response)\n\n    new_version, version_number = check_new_version(request.env.web2py_version,\n                                    WEB2PY_VERSION_URL)\n\n    if new_version == -1:\n        return A(T(\'Unable to check for upgrades\'), _href=WEB2PY_URL)\n    elif new_version != True:\n        return A(T(\'web2py is up to date\'), _href=WEB2PY_URL)\n    elif platform.system().lower() in (\'windows\',\'win32\',\'win64\') and os.path.exists("web2py.exe"):\n        return SPAN(\'You should upgrade to version %s\' % version_number)\n    else:\n        return sp_button(URL(\'upgrade_web2py\'), T(\'upgrade now\')) \\\n          + XML(\' <strong class="upgrade_version">%s</strong>\' % version_number)\n\n\ndef logout():\n    """ Logout handler """\n    session.authorized = None\n    if MULTI_USER_MODE:\n        redirect(URL(\'user/logout\'))\n    redirect(URL(\'index\'))\n\n\ndef change_password():\n\n    if session.pam_user:\n        session.flash = T(\'PAM authenticated user, cannot change password here\')\n        redirect(URL(\'site\'))\n    form=SQLFORM.factory(Field(\'current_admin_password\',\'password\'),\n                         Field(\'new_admin_password\',\'password\',requires=IS_STRONG()),\n                         Field(\'new_admin_password_again\',\'password\'))\n    if form.accepts(request.vars):\n        if not verify_password(request.vars.current_admin_password):\n            form.errors.current_admin_password = T(\'invalid password\')\n        elif form.vars.new_admin_password != form.vars.new_admin_password_again:\n            form.errors.new_admin_password_again = T(\'no match\')\n        else:\n            path = abspath(\'parameters_%s.py\' % request.env.server_port)\n            safe_open(path,\'w\').write(\'password="%s"\' % CRYPT()(request.vars.new_admin_password)[0])\n            session.flash = T(\'password changed\')\n            redirect(URL(\'site\'))\n    return dict(form=form)\n\ndef site():\n    """ Site handler """\n\n    myversion = request.env.web2py_version\n\n    # Shortcut to make the elif statements more legible\n    file_or_appurl = \'file\' in request.vars or \'appurl\' in request.vars\n\n    if DEMO_MODE:\n        pass\n\n    elif request.vars.filename and not \'file\' in request.vars:\n        # create a new application\n        appname = cleanpath(request.vars.filename).replace(\'.\', \'_\')\n        if app_create(appname, request):\n            if MULTI_USER_MODE:\n                db.app.insert(name=appname,owner=auth.user.id)\n            session.flash = T(\'new application "%s" created\', appname)\n            redirect(URL(\'design\',args=appname))\n        else:\n            session.flash = \\\n                T(\'unable to create application "%s" (it may exist already)\', request.vars.filename)\n        redirect(URL(r=request))\n\n    elif file_or_appurl and not request.vars.filename:\n        # can\'t do anything without an app name\n        msg = \'you must specify a name for the uploaded application\'\n        response.flash = T(msg)\n\n    elif file_or_appurl and request.vars.filename:\n        # fetch an application via URL or file upload\n        f = None\n        if request.vars.appurl is not \'\':\n            try:\n                f = urllib.urlopen(request.vars.appurl)\n            except Exception, e:\n                session.flash = DIV(T(\'Unable to download app because:\'),PRE(str(e)))\n                redirect(URL(r=request))\n            fname = request.vars.appurl\n        elif request.vars.file is not \'\':\n            f = request.vars.file.file\n            fname = request.vars.file.filename\n\n        if f:\n            appname = cleanpath(request.vars.filename).replace(\'.\', \'_\')\n            installed = app_install(appname, f, request, fname,\n                                    overwrite=request.vars.overwrite_check)\n        if f and installed:\n            msg = \'application %(appname)s installed with md5sum: %(digest)s\'\n            session.flash = T(msg, dict(appname=appname,\n                                        digest=md5_hash(installed)))\n        elif f and request.vars.overwrite_check:\n            msg = \'unable to install application "%(appname)s"\'\n            session.flash = T(msg, dict(appname=request.vars.filename))\n\n        else:\n            msg = \'unable to install application "%(appname)s"\'\n            session.flash = T(msg, dict(appname=request.vars.filename))\n\n        redirect(URL(r=request))\n\n    regex = re.compile(\'^\\w+$\')\n\n    if is_manager():\n        apps = [f for f in os.listdir(apath(r=request)) if regex.match(f)]\n    else:\n        apps = [f.name for f in db(db.app.owner==auth.user_id).select()]\n\n    if FILTER_APPS:\n        apps = [f for f in apps if f in FILTER_APPS]\n\n    apps = sorted(apps,lambda a,b:cmp(a.upper(),b.upper()))\n\n    return dict(app=None, apps=apps, myversion=myversion)\n\n\ndef pack():\n    app = get_app()\n\n    if len(request.args) == 1:\n        fname = \'web2py.app.%s.w2p\' % app\n        filename = app_pack(app, request)\n    else:\n        fname = \'web2py.app.%s.compiled.w2p\' % app\n        filename = app_pack_compiled(app, request)\n\n    if filename:\n        response.headers[\'Content-Type\'] = \'application/w2p\'\n        disposition = \'attachment; filename=%s\' % fname\n        response.headers[\'Content-Disposition\'] = disposition\n        return safe_open(filename, \'rb\').read()\n    else:\n        session.flash = T(\'internal error\')\n        redirect(URL(\'site\'))\n\ndef pack_plugin():\n    app = get_app()\n    if len(request.args) == 2:\n        fname = \'web2py.plugin.%s.w2p\' % request.args[1]\n        filename = plugin_pack(app, request.args[1], request)\n    if filename:\n        response.headers[\'Content-Type\'] = \'application/w2p\'\n        disposition = \'attachment; filename=%s\' % fname\n        response.headers[\'Content-Disposition\'] = disposition\n        return safe_open(filename, \'rb\').read()\n    else:\n        session.flash = T(\'internal error\')\n        redirect(URL(\'plugin\',args=request.args))\n\ndef upgrade_web2py():\n    if \'upgrade\' in request.vars:\n        (success, error) = upgrade(request)\n        if success:\n            session.flash = T(\'web2py upgraded; please restart it\')\n        else:\n            session.flash = T(\'unable to upgrade because "%s"\', error)\n        redirect(URL(\'site\'))\n    elif \'noupgrade\' in request.vars:\n        redirect(URL(\'site\'))\n    return dict()\n\ndef uninstall():\n    app = get_app()\n    if \'delete\' in request.vars:\n        if MULTI_USER_MODE:\n            if is_manager() and db(db.app.name==app).delete():\n                pass\n            elif db(db.app.name==app)(db.app.owner==auth.user.id).delete():\n                pass\n            else:\n                session.flash = T(\'no permission to uninstall "%s"\', app)\n                redirect(URL(\'site\'))\n        if app_uninstall(app, request):            \n            session.flash = T(\'application "%s" uninstalled\', app)\n        else:\n            session.flash = T(\'unable to uninstall "%s"\', app)\n        redirect(URL(\'site\'))\n    elif \'nodelete\' in request.vars:\n        redirect(URL(\'site\'))\n    return dict(app=app)\n\n\ndef cleanup():\n    app = get_app()\n    clean = app_cleanup(app, request)\n    if not clean:\n        session.flash = T("some files could not be removed")\n    else:\n        session.flash = T(\'cache, errors and sessions cleaned\')\n\n    redirect(URL(\'site\'))\n\n\ndef compile_app():\n    app = get_app()\n    c = app_compile(app, request)\n    if not c:\n        session.flash = T(\'application compiled\')\n    else:\n        session.flash = DIV(T(\'Cannot compile: there are errors in your app:\'),\n                              CODE(c))\n    redirect(URL(\'site\'))\n\n\ndef remove_compiled_app():\n    """ Remove the compiled application """\n    app = get_app()\n    remove_compiled_application(apath(app, r=request))\n    session.flash = T(\'compiled application removed\')\n    redirect(URL(\'site\'))\n\ndef delete():\n    """ Object delete handler """\n    app = get_app()\n    filename = \'/\'.join(request.args)\n    sender = request.vars.sender\n\n    if isinstance(sender, list):  # ## fix a problem with Vista\n        sender = sender[0]\n\n    if \'nodelete\' in request.vars:\n        redirect(URL(sender))\n    elif \'delete\' in request.vars:\n        try:\n            os.unlink(apath(filename, r=request))\n            session.flash = T(\'file "%(filename)s" deleted\',\n                              dict(filename=filename))\n        except Exception:\n            session.flash = T(\'unable to delete file "%(filename)s"\',\n                              dict(filename=filename))\n        redirect(URL(sender))\n    return dict(filename=filename, sender=sender)\n\ndef peek():\n    """ Visualize object code """\n    app = get_app()\n    filename = \'/\'.join(request.args)\n    try:\n        data = safe_open(apath(filename, r=request), \'r\').read().replace(\'\\r\',\'\')\n    except IOError:\n        session.flash = T(\'file does not exist\')\n        redirect(URL(\'site\'))\n\n    extension = filename[filename.rfind(\'.\') + 1:].lower()\n\n    return dict(app=request.args[0],\n                filename=filename,\n                data=data,\n                extension=extension)\n\n\ndef test():\n    """ Execute controller tests """\n    app = get_app()\n    if len(request.args) > 1:\n        file = request.args[1]\n    else:\n        file = \'.*\\.py\'\n\n    controllers = listdir(apath(\'%s/controllers/\' % app, r=request), file + \'$\')\n\n    return dict(app=app, controllers=controllers)\n\ndef keepalive():\n    return \'\'\n\ndef search():\n    keywords=request.vars.keywords or \'\'\n    app = get_app()\n    def match(filename,keywords):\n        filename=os.path.join(apath(app, r=request),filename)\n        if keywords in open(filename,\'rb\').read():\n            return True\n        return False\n    path=apath(request.args[0], r=request)\n    files1 = glob(os.path.join(path,\'*/*.py\'))\n    files2 = glob(os.path.join(path,\'*/*.html\'))\n    files3 = glob(os.path.join(path,\'*/*/*.html\'))\n    files=[x[len(path)+1:].replace(\'\\\\\',\'/\') for x in files1+files2+files3 if match(x,keywords)]\n    return response.json({\'files\':files})\n\ndef edit():\n    """ File edit handler """\n    # Load json only if it is ajax edited...\n    app = get_app()\n    filename = \'/\'.join(request.args)\n    # Try to discover the file type\n    if filename[-3:] == \'.py\':\n        filetype = \'python\'\n    elif filename[-5:] == \'.html\':\n        filetype = \'html\'\n    elif filename[-5:] == \'.load\':\n        filetype = \'html\'\n    elif filename[-4:] == \'.css\':\n        filetype = \'css\'\n    elif filename[-3:] == \'.js\':\n        filetype = \'js\'\n    else:\n        filetype = \'html\'\n\n    # ## check if file is not there\n\n    path = apath(filename, r=request)\n\n    if request.vars.revert and os.path.exists(path + \'.bak\'):\n        try:\n            data = safe_open(path + \'.bak\', \'r\').read()\n            data1 = safe_open(path, \'r\').read()\n        except IOError:\n            session.flash = T(\'Invalid action\')\n            if \'from_ajax\' in request.vars:\n                 return response.json({\'error\': str(T(\'Invalid action\'))})\n            else:\n                redirect(URL(\'site\'))\n\n        safe_open(path, \'w\').write(data)\n        file_hash = md5_hash(data)\n        saved_on = time.ctime(os.stat(path)[stat.ST_MTIME])\n        safe_open(path + \'.bak\', \'w\').write(data1)\n        response.flash = T(\'file "%s" of %s restored\', (filename, saved_on))\n    else:\n        try:\n            data = safe_open(path, \'r\').read()\n        except IOError:\n            session.flash = T(\'Invalid action\')\n            if \'from_ajax\' in request.vars:\n                return response.json({\'error\': str(T(\'Invalid action\'))})\n            else:\n                redirect(URL(\'site\'))\n\n        file_hash = md5_hash(data)\n        saved_on = time.ctime(os.stat(path)[stat.ST_MTIME])\n\n        if request.vars.file_hash and request.vars.file_hash != file_hash:\n            session.flash = T(\'file changed on disk\')\n            data = request.vars.data.replace(\'\\r\\n\', \'\\n\').strip() + \'\\n\'\n            safe_open(path + \'.1\', \'w\').write(data)\n            if \'from_ajax\' in request.vars:\n                return response.json({\'error\': str(T(\'file changed on disk\')),\n                                      \'redirect\': URL(\'resolve\',\n                                                      args=request.args)})\n            else:\n                redirect(URL(\'resolve\', args=request.args))\n        elif request.vars.data:\n            safe_open(path + \'.bak\', \'w\').write(data)\n            data = request.vars.data.replace(\'\\r\\n\', \'\\n\').strip() + \'\\n\'\n            safe_open(path, \'w\').write(data)\n            file_hash = md5_hash(data)\n            saved_on = time.ctime(os.stat(path)[stat.ST_MTIME])\n            response.flash = T(\'file saved on %s\', saved_on)\n\n    data_or_revert = (request.vars.data or request.vars.revert)\n\n    # Check compile errors\n    highlight = None\n    if filetype == \'python\' and request.vars.data:\n        import _ast\n        try:\n            code = request.vars.data.rstrip().replace(\'\\r\\n\',\'\\n\')+\'\\n\'\n            compile(code, path, "exec", _ast.PyCF_ONLY_AST)\n        except Exception, e:\n            start = sum([len(line)+1 for l, line\n                            in enumerate(request.vars.data.split("\\n"))\n                            if l < e.lineno-1])\n            if e.text and e.offset:\n                offset = e.offset - (len(e.text) - len(e.text.splitlines()[-1]))\n            else:\n                offset = 0\n            highlight = {\'start\': start, \'end\': start + offset + 1}\n            try:\n                ex_name = e.__class__.__name__\n            except:\n                ex_name = \'unknown exception!\'\n            response.flash = DIV(T(\'failed to compile file because:\'), BR(),\n                                 B(ex_name), T(\' at line %s\') % e.lineno,\n                                 offset and T(\' at char %s\') % offset or \'\',\n                                 PRE(str(e)))\n\n    if data_or_revert and request.args[1] == \'modules\':\n        # Lets try to reload the modules\n        try:\n            mopath = \'.\'.join(request.args[2:])[:-3]\n            exec \'import applications.%s.modules.%s\' % (request.args[0], mopath)\n            reload(sys.modules[\'applications.%s.modules.%s\'\n                    % (request.args[0], mopath)])\n        except Exception, e:\n            response.flash = DIV(T(\'failed to reload module because:\'),PRE(str(e)))\n\n    edit_controller = None\n    editviewlinks = None\n    view_link = None\n    if filetype == \'html\' and len(request.args) >= 3:\n        cfilename = os.path.join(request.args[0], \'controllers\',\n                                 request.args[2] + \'.py\')\n        if os.path.exists(apath(cfilename, r=request)):\n            edit_controller = URL(\'edit\', args=[cfilename])\n            view = request.args[3].replace(\'.html\',\'\')\n            view_link = URL(request.args[0],request.args[2],view)\n    elif filetype == \'python\' and request.args[1] == \'controllers\':\n        ## it\'s a controller file.\n        ## Create links to all of the associated view files.\n        app = get_app()\n        viewname = os.path.splitext(request.args[2])[0]\n        viewpath = os.path.join(app,\'views\',viewname)\n        aviewpath = apath(viewpath, r=request)\n        viewlist = []\n        if os.path.exists(aviewpath):\n            if os.path.isdir(aviewpath):\n                viewlist = glob(os.path.join(aviewpath,\'*.html\'))\n        elif os.path.exists(aviewpath+\'.html\'):\n            viewlist.append(aviewpath+\'.html\')\n        if len(viewlist):\n            editviewlinks = []\n            for v in viewlist:\n                vf = os.path.split(v)[-1]\n                vargs = "/".join([viewpath.replace(os.sep,"/"),vf])\n                editviewlinks.append(A(T(vf.split(".")[0]),\\\n                    _href=URL(\'edit\',args=[vargs])))\n\n    if len(request.args) > 2 and request.args[1] == \'controllers\':\n        controller = (request.args[2])[:-3]\n        functions = regex_expose.findall(data)\n    else:\n        (controller, functions) = (None, None)\n\n    if \'from_ajax\' in request.vars:\n        return response.json({\'file_hash\': file_hash, \'saved_on\': saved_on, \'functions\':functions, \'controller\': controller, \'application\': request.args[0], \'highlight\': highlight })\n    else:\n\n        editarea_preferences = {}\n        editarea_preferences[\'FONT_SIZE\'] = \'10\'\n        editarea_preferences[\'FULL_SCREEN\'] = \'false\'\n        editarea_preferences[\'ALLOW_TOGGLE\'] = \'true\'\n        editarea_preferences[\'REPLACE_TAB_BY_SPACES\'] = \'4\'\n        editarea_preferences[\'DISPLAY\'] = \'onload\'\n        for key in editarea_preferences:\n            if globals().has_key(key):\n                editarea_preferences[key]=globals()[key]\n        return dict(app=request.args[0],\n                    filename=filename,\n                    filetype=filetype,\n                    data=data,\n                    edit_controller=edit_controller,\n                    file_hash=file_hash,\n                    saved_on=saved_on,\n                    controller=controller,\n                    functions=functions,\n                    view_link=view_link,\n                    editarea_preferences=editarea_preferences,\n                    editviewlinks=editviewlinks)\n\ndef resolve():\n    """\n    """\n\n    filename = \'/\'.join(request.args)\n    # ## check if file is not there\n    path = apath(filename, r=request)\n    a = safe_open(path, \'r\').readlines()\n\n    try:\n        b = safe_open(path + \'.1\', \'r\').readlines()\n    except IOError:\n        session.flash = \'Other file, no longer there\'\n        redirect(URL(\'edit\', args=request.args))\n\n    d = difflib.ndiff(a, b)\n\n    def leading(line):\n        """  """\n\n        # TODO: we really need to comment this\n        z = \'\'\n        for (k, c) in enumerate(line):\n            if c == \' \':\n                z += \'&nbsp;\'\n            elif c == \' \\t\':\n                z += \'&nbsp;\'\n            elif k == 0 and c == \'?\':\n                pass\n            else:\n                break\n\n        return XML(z)\n\n    def getclass(item):\n        """ Determine item class """\n\n        if item[0] == \' \':\n            return \'normal\'\n        if item[0] == \'+\':\n            return \'plus\'\n        if item[0] == \'-\':\n            return \'minus\'\n\n    if request.vars:\n        c = \'\'.join([item[2:] for (i, item) in enumerate(d) if item[0] \\\n                     == \' \' or \'line%i\' % i in request.vars])\n        safe_open(path, \'w\').write(c)\n        session.flash = \'files merged\'\n        redirect(URL(\'edit\', args=request.args))\n    else:\n        # Making the short circuit compatible with <= python2.4\n        gen_data = lambda index,item: not item[:1] in [\'+\',\'-\'] and "" \\\n                   or INPUT(_type=\'checkbox\',\n                            _name=\'line%i\' % index,\n                            value=item[0] == \'+\')\n\n        diff = TABLE(*[TR(TD(gen_data(i,item)),\n                          TD(item[0]),\n                          TD(leading(item[2:]),\n                          TT(item[2:].rstrip())), _class=getclass(item))\n                       for (i, item) in enumerate(d) if item[0] != \'?\'])\n\n    return dict(diff=diff, filename=filename)\n\n\ndef edit_language():\n    """ Edit language file """\n    app = get_app()\n    filename = \'/\'.join(request.args)\n    from gluon.languages import read_dict, write_dict\n    strings = read_dict(apath(filename, r=request))\n    keys = sorted(strings.keys(),lambda x,y: cmp(x.lower(), y.lower()))\n    rows = []\n    rows.append(H2(T(\'Original/Translation\')))\n\n    for key in keys:\n        name = md5_hash(key)\n        if key==strings[key]:\n            _class=\'untranslated\'\n        else:\n            _class=\'translated\'\n        if len(key) <= 40:\n            elem = INPUT(_type=\'text\', _name=name,value=strings[key],\n                         _size=70,_class=_class)\n        else:\n            elem = TEXTAREA(_name=name, value=strings[key], _cols=70,\n                            _rows=5, _class=_class)\n\n        # Making the short circuit compatible with <= python2.4\n        k = (strings[key] != key) and key or B(key)\n\n        rows.append(P(k, BR(), elem, TAG.BUTTON(T(\'delete\'),\n                            _onclick=\'return delkey("%s")\' % name), _id=name))\n\n    rows.append(INPUT(_type=\'submit\', _value=T(\'update\')))\n    form = FORM(*rows)\n    if form.accepts(request.vars, keepvalues=True):\n        strs = dict()\n        for key in keys:\n            name = md5_hash(key)\n            if form.vars[name]==chr(127): continue\n            strs[key] = form.vars[name]\n        write_dict(apath(filename, r=request), strs)\n        session.flash = T(\'file saved on %(time)s\', dict(time=time.ctime()))\n        redirect(URL(r=request,args=request.args))\n    return dict(app=request.args[0], filename=filename, form=form)\n\n\ndef about():\n    """ Read about info """\n    app = get_app()\n    # ## check if file is not there\n    about = safe_open(apath(\'%s/ABOUT\' % app, r=request), \'r\').read()\n    license = safe_open(apath(\'%s/LICENSE\' % app, r=request), \'r\').read()\n\n    return dict(app=app, about=MARKMIN(about), license=MARKMIN(license))\n\n\ndef design():\n    """ Application design handler """\n    app = get_app()\n    if not response.flash and app == request.application:\n        msg = T(\'ATTENTION: you cannot edit the running application!\')\n        response.flash = msg\n\n    if request.vars.pluginfile!=None:\n        filename=os.path.basename(request.vars.pluginfile.filename)\n        if plugin_install(app, request.vars.pluginfile.file,\n                          request, filename):\n            session.flash = T(\'new plugin installed\')\n            redirect(URL(\'design\',args=app))\n        else:\n            session.flash = \\\n                T(\'unable to create application "%s"\', request.vars.filename)\n        redirect(URL(r=request))\n\n\n    # If we have only pyc files it means that\n    # we cannot design\n    if os.path.exists(apath(\'%s/compiled\' % app, r=request)):\n        session.flash = \\\n            T(\'application is compiled and cannot be designed\')\n        redirect(URL(\'site\'))\n\n    # Get all models\n    models = listdir(apath(\'%s/models/\' % app, r=request), \'.*\\.py$\')\n    models=[x.replace(\'\\\\\',\'/\') for x in models]\n    defines = {}\n    for m in models:\n        data = safe_open(apath(\'%s/models/%s\' % (app, m), r=request), \'r\').read()\n        defines[m] = regex_tables.findall(data)\n        defines[m].sort()\n\n    # Get all controllers\n    controllers = sorted(listdir(apath(\'%s/controllers/\' % app, r=request), \'.*\\.py$\'))\n    controllers = [x.replace(\'\\\\\',\'/\') for x in controllers]\n    functions = {}\n    for c in controllers:\n        data = safe_open(apath(\'%s/controllers/%s\' % (app, c), r=request), \'r\').read()\n        items = regex_expose.findall(data)\n        functions[c] = items\n\n    # Get all views\n    views = sorted(listdir(apath(\'%s/views/\' % app, r=request), \'[\\w/\\-]+\\.\\w+$\'))\n    views = [x.replace(\'\\\\\',\'/\') for x in views]\n    extend = {}\n    include = {}\n    for c in views:\n        data = safe_open(apath(\'%s/views/%s\' % (app, c), r=request), \'r\').read()\n        items = regex_extend.findall(data)\n\n        if items:\n            extend[c] = items[0][1]\n\n        items = regex_include.findall(data)\n        include[c] = [i[1] for i in items]\n\n    # Get all modules\n    modules = listdir(apath(\'%s/modules/\' % app, r=request), \'.*\\.py$\')\n    modules = modules=[x.replace(\'\\\\\',\'/\') for x in modules]\n    modules.sort()\n\n    # Get all static files\n    statics = listdir(apath(\'%s/static/\' % app, r=request), \'[^\\.#].*\')\n    statics = [x.replace(\'\\\\\',\'/\') for x in statics]\n    statics.sort()\n\n    # Get all languages\n    languages = listdir(apath(\'%s/languages/\' % app, r=request), \'[\\w-]*\\.py\')\n\n    #Get crontab\n    cronfolder = apath(\'%s/cron\' % app, r=request)\n    if not os.path.exists(cronfolder): os.mkdir(cronfolder)\n    crontab = apath(\'%s/cron/crontab\' % app, r=request)\n    if not os.path.exists(crontab):\n        safe_open(crontab,\'w\').write(\'#crontab\')\n\n    plugins=[]\n    def filter_plugins(items,plugins):\n        plugins+=[item[7:].split(\'/\')[0].split(\'.\')[0] for item in items if item.startswith(\'plugin_\')]\n        plugins[:]=list(set(plugins))\n        plugins.sort()\n        return [item for item in items if not item.startswith(\'plugin_\')]\n\n    return dict(app=app,\n                models=filter_plugins(models,plugins),\n                defines=defines,\n                controllers=filter_plugins(controllers,plugins),\n                functions=functions,\n                views=filter_plugins(views,plugins),\n                modules=filter_plugins(modules,plugins),\n                extend=extend,\n                include=include,\n                statics=filter_plugins(statics,plugins),\n                languages=languages,\n                crontab=crontab,\n                plugins=plugins)\n\ndef delete_plugin():\n    """ Object delete handler """\n    app=request.args(0)\n    plugin = request.args(1)\n    plugin_name=\'plugin_\'+plugin\n    if \'nodelete\' in request.vars:\n        redirect(URL(\'design\',args=app))\n    elif \'delete\' in request.vars:\n        try:\n            for folder in [\'models\',\'views\',\'controllers\',\'static\',\'modules\']:\n                path=os.path.join(apath(app,r=request),folder)\n                for item in os.listdir(path):\n                    if item.startswith(plugin_name):\n                        filename=os.path.join(path,item)\n                        if os.path.isdir(filename):\n                            shutil.rmtree(filename)\n                        else:\n                            os.unlink(filename)\n            session.flash = T(\'plugin "%(plugin)s" deleted\',\n                              dict(plugin=plugin))\n        except Exception:\n            session.flash = T(\'unable to delete file plugin "%(plugin)s"\',\n                              dict(plugin=plugin))\n        redirect(URL(\'design\',args=request.args(0)))\n    return dict(plugin=plugin)\n\ndef plugin():\n    """ Application design handler """\n    app = get_app()\n    plugin = request.args(1)\n\n    if not response.flash and app == request.application:\n        msg = T(\'ATTENTION: you cannot edit the running application!\')\n        response.flash = msg\n\n    # If we have only pyc files it means that\n    # we cannot design\n    if os.path.exists(apath(\'%s/compiled\' % app, r=request)):\n        session.flash = \\\n            T(\'application is compiled and cannot be designed\')\n        redirect(URL(\'site\'))\n\n    # Get all models\n    models = listdir(apath(\'%s/models/\' % app, r=request), \'.*\\.py$\')\n    models=[x.replace(\'\\\\\',\'/\') for x in models]\n    defines = {}\n    for m in models:\n        data = safe_open(apath(\'%s/models/%s\' % (app, m), r=request), \'r\').read()\n        defines[m] = regex_tables.findall(data)\n        defines[m].sort()\n\n    # Get all controllers\n    controllers = sorted(listdir(apath(\'%s/controllers/\' % app, r=request), \'.*\\.py$\'))\n    controllers = [x.replace(\'\\\\\',\'/\') for x in controllers]\n    functions = {}\n    for c in controllers:\n        data = safe_open(apath(\'%s/controllers/%s\' % (app, c), r=request), \'r\').read()\n        items = regex_expose.findall(data)\n        functions[c] = items\n\n    # Get all views\n    views = sorted(listdir(apath(\'%s/views/\' % app, r=request), \'[\\w/\\-]+\\.\\w+$\'))\n    views = [x.replace(\'\\\\\',\'/\') for x in views]\n    extend = {}\n    include = {}\n    for c in views:\n        data = safe_open(apath(\'%s/views/%s\' % (app, c), r=request), \'r\').read()\n        items = regex_extend.findall(data)\n\n        if items:\n            extend[c] = items[0][1]\n\n        items = regex_include.findall(data)\n        include[c] = [i[1] for i in items]\n\n    # Get all modules\n    modules = listdir(apath(\'%s/modules/\' % app, r=request), \'.*\\.py$\')\n    modules = modules=[x.replace(\'\\\\\',\'/\') for x in modules]\n    modules.sort()\n\n    # Get all static files\n    statics = listdir(apath(\'%s/static/\' % app, r=request), \'[^\\.#].*\')\n    statics = [x.replace(\'\\\\\',\'/\') for x in statics]\n    statics.sort()\n\n    # Get all languages\n    languages = listdir(apath(\'%s/languages/\' % app, r=request), \'[\\w-]*\\.py\')\n\n    #Get crontab\n    crontab = apath(\'%s/cron/crontab\' % app, r=request)\n    if not os.path.exists(crontab):\n        safe_open(crontab,\'w\').write(\'#crontab\')\n\n\n    def filter_plugins(items):\n        regex=re.compile(\'^plugin_\'+plugin+\'(/.*|\\..*)?$\')\n        return [item for item in items if regex.match(item)]\n\n    return dict(app=app,\n                models=filter_plugins(models),\n                defines=defines,\n                controllers=filter_plugins(controllers),\n                functions=functions,\n                views=filter_plugins(views),\n                modules=filter_plugins(modules),\n                extend=extend,\n                include=include,\n                statics=filter_plugins(statics),\n                languages=languages,\n                crontab=crontab)\n\n\ndef create_file():\n    """ Create files handler """\n    try:\n        app = get_app(name=request.vars.location.split(\'/\')[0])\n        path = apath(request.vars.location, r=request)\n        filename = re.sub(\'[^\\w./-]+\', \'_\', request.vars.filename)\n\n        if path[-11:] == \'/languages/\':\n            # Handle language files\n            if len(filename) == 0:\n                raise SyntaxError\n            if not filename[-3:] == \'.py\':\n                filename += \'.py\'\n            app = path.split(\'/\')[-3]\n            path=os.path.join(apath(app, r=request),\'languages\',filename)\n            if not os.path.exists(path):\n                safe_open(path,\'w\').write(\'\')\n            findT(apath(app, r=request), filename[:-3])\n            session.flash = T(\'language file "%(filename)s" created/updated\',\n                              dict(filename=filename))\n            redirect(request.vars.sender)\n\n        elif path[-8:] == \'/models/\':\n            # Handle python models\n            if not filename[-3:] == \'.py\':\n                filename += \'.py\'\n\n            if len(filename) == 3:\n                raise SyntaxError\n\n            text = \'# coding: utf8\\n\'\n\n        elif path[-13:] == \'/controllers/\':\n            # Handle python controllers\n            if not filename[-3:] == \'.py\':\n                filename += \'.py\'\n\n            if len(filename) == 3:\n                raise SyntaxError\n\n            text = \'# coding: utf8\\n# %s\\ndef index(): return dict(message="hello from %s")\'\n            text = text % (T(\'try something like\'), filename)\n\n        elif path[-7:] == \'/views/\':\n            if request.vars.plugin and not filename.startswith(\'plugin_%s/\' % request.vars.plugin):\n                filename = \'plugin_%s/%s\' % (request.vars.plugin, filename)\n            # Handle template (html) views\n            if filename.find(\'.\')<0:\n                filename += \'.html\'\n\n            if len(filename) == 5:\n                raise SyntaxError\n\n            msg = T(\'This is the %(filename)s template\',\n                    dict(filename=filename))\n            text = dedent("""\n                   {{extend \'layout.html\'}}\n                   <h1>%s</h1>\n                   {{=BEAUTIFY(response._vars)}}""" % msg)\n\n        elif path[-9:] == \'/modules/\':\n            if request.vars.plugin and not filename.startswith(\'plugin_%s/\' % request.vars.plugin):\n                filename = \'plugin_%s/%s\' % (request.vars.plugin, filename)\n            # Handle python module files\n            if not filename[-3:] == \'.py\':\n                filename += \'.py\'\n\n            if len(filename) == 3:\n                raise SyntaxError\n\n            text = dedent("""\n                   #!/usr/bin/env python\n                   # coding: utf8\n                   from gluon.html import *\n                   from gluon.http import *\n                   from gluon.validators import *\n                   from gluon.sqlhtml import *\n                   # request, response, session, cache, T, db(s)\n                   # must be passed and cannot be imported!""")\n\n        elif path[-8:] == \'/static/\':\n            if request.vars.plugin and not filename.startswith(\'plugin_%s/\' % request.vars.plugin):\n                filename = \'plugin_%s/%s\' % (request.vars.plugin, filename)\n            text = \'\'\n        else:\n            redirect(request.vars.sender)\n\n        full_filename = os.path.join(path, filename)\n        dirpath = os.path.dirname(full_filename)\n\n        if not os.path.exists(dirpath):\n            os.makedirs(dirpath)\n\n        if os.path.exists(full_filename):\n            raise SyntaxError\n\n        safe_open(full_filename, \'w\').write(text)\n        session.flash = T(\'file "%(filename)s" created\',\n                          dict(filename=full_filename[len(path):]))\n        redirect(URL(\'edit\',\n                 args=[os.path.join(request.vars.location, filename)]))\n    except Exception, e:\n        if not isinstance(e,HTTP):\n            session.flash = T(\'cannot create file\')\n\n    redirect(request.vars.sender)\n\n\ndef upload_file():\n    """ File uploading handler """\n\n    try:\n        app = get_app(name=request.vars.location.split(\'/\')[0])\n        path = apath(request.vars.location, r=request)\n\n        if request.vars.filename:\n            filename = re.sub(\'[^\\w\\./]+\', \'_\', request.vars.filename)\n        else:\n            filename = os.path.split(request.vars.file.filename)[-1]\n\n        if path[-8:] == \'/models/\' and not filename[-3:] == \'.py\':\n            filename += \'.py\'\n\n        if path[-9:] == \'/modules/\' and not filename[-3:] == \'.py\':\n            filename += \'.py\'\n\n        if path[-13:] == \'/controllers/\' and not filename[-3:] == \'.py\':\n            filename += \'.py\'\n\n        if path[-7:] == \'/views/\' and not filename[-5:] == \'.html\':\n            filename += \'.html\'\n\n        if path[-11:] == \'/languages/\' and not filename[-3:] == \'.py\':\n            filename += \'.py\'\n\n        filename = os.path.join(path, filename)\n        dirpath = os.path.dirname(filename)\n\n        if not os.path.exists(dirpath):\n            os.makedirs(dirpath)\n\n        safe_open(filename, \'wb\').write(request.vars.file.file.read())\n        session.flash = T(\'file "%(filename)s" uploaded\',\n                          dict(filename=filename[len(path):]))\n    except Exception:\n        session.flash = T(\'cannot upload file "%(filename)s"\',\n                          dict(filename[len(path):]))\n\n    redirect(request.vars.sender)\n\n\ndef errors():\n    """ Error handler """\n    import operator\n    import os\n    import pickle\n    import hashlib\n\n    app = get_app()\n\n    method = request.args(1) or \'new\'\n\n\n    if method == \'new\':\n        errors_path = apath(\'%s/errors\' % app, r=request)\n\n        delete_hashes = []\n        for item in request.vars:\n            if item[:7] == \'delete_\':\n                delete_hashes.append(item[7:])\n\n        hash2error = dict()\n\n        for fn in listdir(errors_path, \'^\\w.*\'):\n            fullpath = os.path.join(errors_path, fn)\n            if not os.path.isfile(fullpath): continue\n            try:\n                error = pickle.load(open(fullpath, \'r\'))\n            except IOError:\n                continue\n\n            hash = hashlib.md5(error[\'traceback\']).hexdigest()\n\n            if hash in delete_hashes:\n                os.unlink(fullpath)\n            else:\n                try:\n                    hash2error[hash][\'count\'] += 1\n                except KeyError:\n                    error_lines = error[\'traceback\'].split("\\n")\n                    last_line = error_lines[-2]\n                    error_causer = os.path.split(error[\'layer\'])[1]\n                    hash2error[hash] = dict(count=1, pickel=error,\n                                            causer=error_causer,\n                                            last_line=last_line,\n                                            hash=hash,ticket=fn)\n\n        decorated = [(x[\'count\'], x) for x in hash2error.values()]\n        decorated.sort(key=operator.itemgetter(0), reverse=True)\n\n        return dict(errors = [x[1] for x in decorated], app=app, method=method)\n    else:\n        for item in request.vars:\n            if item[:7] == \'delete_\':\n                os.unlink(apath(\'%s/errors/%s\' % (app, item[7:]), r=request))\n        func = lambda p: os.stat(apath(\'%s/errors/%s\' % \\\n                                           (app, p), r=request)).st_mtime\n        tickets = sorted(listdir(apath(\'%s/errors/\' % app, r=request), \'^\\w.*\'),\n                         key=func,\n                         reverse=True)\n\n        return dict(app=app, tickets=tickets, method=method)\n\n\ndef make_link(path):\n    """ Create a link from a path """\n    tryFile = path.replace(\'\\\\\', \'/\')\n\n    if os.path.isabs(tryFile) and os.path.isfile(tryFile):\n        (folder, filename) = os.path.split(tryFile)\n        (base, ext) = os.path.splitext(filename)\n        app = get_app()\n\n        editable = {\'controllers\': \'.py\', \'models\': \'.py\', \'views\': \'.html\'}\n        for key in editable.keys():\n            check_extension = folder.endswith("%s/%s" % (app,key))\n            if ext.lower() == editable[key] and check_extension:\n                return A(\'"\' + tryFile + \'"\',\n                         _href=URL(r=request,\n                         f=\'edit/%s/%s/%s\' % (app, key, filename))).xml()\n    return \'\'\n\n\ndef make_links(traceback):\n    """ Make links using the given traceback """\n\n    lwords = traceback.split(\'"\')\n\n    # Making the short circuit compatible with <= python2.4\n    result = (len(lwords) != 0) and lwords[0] or \'\'\n\n    i = 1\n\n    while i < len(lwords):\n        link = make_link(lwords[i])\n\n        if link == \'\':\n            result += \'"\' + lwords[i]\n        else:\n            result += link\n\n            if i + 1 < len(lwords):\n                result += lwords[i + 1]\n                i = i + 1\n\n        i = i + 1\n\n    return result\n\n\nclass TRACEBACK(object):\n    """ Generate the traceback """\n\n    def __init__(self, text):\n        """ TRACEBACK constructor """\n\n        self.s = make_links(CODE(text).xml())\n\n    def xml(self):\n        """ Returns the xml """\n\n        return self.s\n\n\ndef ticket():\n    """ Ticket handler """\n\n    if len(request.args) != 2:\n        session.flash = T(\'invalid ticket\')\n        redirect(URL(\'site\'))\n\n    app = get_app()\n    myversion = request.env.web2py_version\n    ticket = request.args[1]\n    e = RestrictedError()\n    e.load(request, app, ticket)\n\n    return dict(app=app,\n                ticket=ticket,\n                output=e.output,\n                traceback=(e.traceback and TRACEBACK(e.traceback)),\n                snapshot=e.snapshot,\n                code=e.code,\n                layer=e.layer,\n                myversion=myversion)\n\ndef error():\n    """ Generate a ticket (for testing) """\n    raise RuntimeError(\'admin ticket generator at your service\')\n\ndef update_languages():\n    """ Update available languages """\n\n    app = get_app()\n    update_all_languages(apath(app, r=request))\n    session.flash = T(\'Language files (static strings) updated\')\n    redirect(URL(\'design\',args=app))\n\ndef twitter():\n    session.forget()\n    session._unlock(response)\n    import gluon.tools\n    import gluon.contrib.simplejson as sj\n    try:\n        page = gluon.tools.fetch(\'http://twitter.com/web2py?format=json\')\n        return sj.loads(page)[\'#timeline\']\n    except Exception, e:\n        return DIV(T(\'Unable to download because:\'),BR(),str(e))\n\ndef user():\n    if MULTI_USER_MODE:\n        if not db(db.auth_user).count():\n            auth.settings.registration_requires_approval = False            \n        return dict(form=auth())\n    else:\n        return dict(form=T("Disabled"))\n\ndef reload_routes():\n   """ Reload routes.py """\n   gluon.rewrite.load()\n   redirect(URL(\'site\'))\n\nresponse._vars=response._caller(design)\n'
p6
sS'snapshot'
p7
(dp8
S'exception'
p9
(dp10
S'__getslice__'
p11
S"<method-wrapper '__getslice__' of exceptions.OSError object>"
p12
sS'__str__'
p13
S"<method-wrapper '__str__' of exceptions.OSError object>"
p14
sS'__reduce__'
p15
S'<built-in method __reduce__ of exceptions.OSError object>'
p16
sS'__dict__'
p17
S'{}'
p18
sS'__sizeof__'
p19
S'<built-in method __sizeof__ of exceptions.OSError object>'
p20
sS'__init__'
p21
S"<method-wrapper '__init__' of exceptions.OSError object>"
p22
sS'__setattr__'
p23
S"<method-wrapper '__setattr__' of exceptions.OSError object>"
p24
sS'__reduce_ex__'
p25
S'<built-in method __reduce_ex__ of exceptions.OSError object>'
p26
sS'__new__'
p27
S'<built-in method __new__ of type object>'
p28
sS'errno'
p29
S'20'
p30
sS'__format__'
p31
S'<built-in method __format__ of exceptions.OSError object>'
p32
sS'__class__'
p33
S"<type 'exceptions.OSError'>"
p34
sS'filename'
p35
S"'/home/nekro/Devel/myprojects/web2py/base/applications/2p_fl/cron'"
p36
sS'__doc__'
p37
S"'OS system call failed.'"
p38
sS'__getitem__'
p39
S"<method-wrapper '__getitem__' of exceptions.OSError object>"
p40
sS'__setstate__'
p41
S'<built-in method __setstate__ of exceptions.OSError object>'
p42
sS'__getattribute__'
p43
S"<method-wrapper '__getattribute__' of exceptions.OSError object>"
p44
sS'args'
p45
S"(20, 'Not a directory')"
p46
sS'__subclasshook__'
p47
S'<built-in method __subclasshook__ of type object>'
p48
sS'__unicode__'
p49
S'<built-in method __unicode__ of exceptions.OSError object>'
p50
sS'strerror'
p51
S"'Not a directory'"
p52
sS'__delattr__'
p53
S"<method-wrapper '__delattr__' of exceptions.OSError object>"
p54
sS'__repr__'
p55
S"<method-wrapper '__repr__' of exceptions.OSError object>"
p56
sS'__hash__'
p57
S"<method-wrapper '__hash__' of exceptions.OSError object>"
p58
ssS'evalue'
p59
S"[Errno 20] Not a directory: '/home/nekro/Devel/myprojects/web2py/base/applications/2p_fl/cron'"
p60
sS'request'
p61
ccopy_reg
_reconstructor
p62
(cgluon.html
BEAUTIFY
p63
c__builtin__
object
p64
NtRp65
(dp66
S'attributes'
p67
(dp68
sS'components'
p69
(lp70
g62
(cgluon.html
TABLE
p71
g64
NtRp72
(dp73
g67
(dp74
S'level'
p75
I5
ssS'parent'
p76
Nsg69
(lp77
g62
(cgluon.html
TR
p78
g64
NtRp79
(dp80
g67
(dp81
sg76
g72
sg69
(lp82
g62
(cgluon.html
TD
p83
g64
NtRp84
(dp85
g67
(dp86
S'_style'
p87
S'font-weight:bold;'
p88
ssg76
g79
sg69
(lp89
S'ajax'
p90
asbag62
(g83
g64
NtRp91
(dp92
g67
(dp93
S'_valign'
p94
S'top'
p95
ssg76
g79
sg69
(lp96
S':'
asbag62
(g83
g64
NtRp97
(dp98
g67
(dp99
sg76
g79
sg69
(lp100
g62
(g63
g64
NtRp101
(dp102
g67
(dp103
g75
I5
ssg76
g97
sg69
(lp104
S'False'
p105
asbasbasbag62
(g78
g64
NtRp106
(dp107
g67
(dp108
sg76
g72
sg69
(lp109
g62
(g83
g64
NtRp110
(dp111
g67
(dp112
g87
g88
ssg76
g106
sg69
(lp113
S'application'
p114
asbag62
(g83
g64
NtRp115
(dp116
g67
(dp117
g94
g95
ssg76
g106
sg69
(lp118
S':'
asbag62
(g83
g64
NtRp119
(dp120
g67
(dp121
sg76
g106
sg69
(lp122
g62
(g63
g64
NtRp123
(dp124
g67
(dp125
g75
I5
ssg76
g119
sg69
(lp126
S'admin'
p127
asbasbasbag62
(g78
g64
NtRp128
(dp129
g67
(dp130
sg76
g72
sg69
(lp131
g62
(g83
g64
NtRp132
(dp133
g67
(dp134
g87
g88
ssg76
g128
sg69
(lp135
g45
asbag62
(g83
g64
NtRp136
(dp137
g67
(dp138
g94
g95
ssg76
g128
sg69
(lp139
S':'
asbag62
(g83
g64
NtRp140
(dp141
g67
(dp142
sg76
g128
sg69
(lp143
g62
(g63
g64
NtRp144
(dp145
g67
(dp146
g75
I5
ssg76
g140
sg69
(lp147
g62
(g71
g64
NtRp148
(dp149
g67
(dp150
g75
I4
ssg76
Nsg69
(lp151
g62
(g78
g64
NtRp152
(dp153
g67
(dp154
sg76
g148
sg69
(lp155
g62
(g83
g64
NtRp156
(dp157
g67
(dp158
sg76
g152
sg69
(lp159
g62
(g63
g64
NtRp160
(dp161
g67
(dp162
g75
I4
ssg76
g156
sg69
(lp163
S'2p_fl'
p164
asbasbasbasbasbasbasbag62
(g78
g64
NtRp165
(dp166
g67
(dp167
sg76
g72
sg69
(lp168
g62
(g83
g64
NtRp169
(dp170
g67
(dp171
g87
g88
ssg76
g165
sg69
(lp172
S'body'
p173
asbag62
(g83
g64
NtRp174
(dp175
g67
(dp176
g94
g95
ssg76
g165
sg69
(lp177
S':'
asbag62
(g83
g64
NtRp178
(dp179
g67
(dp180
sg76
g165
sg69
(lp181
g62
(g63
g64
NtRp182
(dp183
g67
(dp184
g75
I5
ssg76
g178
sg69
(lp185
S'<cStringIO.StringO object at 0x8bb5f60>'
p186
asbasbasbag62
(g78
g64
NtRp187
(dp188
g67
(dp189
sg76
g72
sg69
(lp190
g62
(g83
g64
NtRp191
(dp192
g67
(dp193
g87
g88
ssg76
g187
sg69
(lp194
S'client'
p195
asbag62
(g83
g64
NtRp196
(dp197
g67
(dp198
g94
g95
ssg76
g187
sg69
(lp199
S':'
asbag62
(g83
g64
NtRp200
(dp201
g67
(dp202
sg76
g187
sg69
(lp203
g62
(g63
g64
NtRp204
(dp205
g67
(dp206
g75
I5
ssg76
g200
sg69
(lp207
S'127.0.0.1'
p208
asbasbasbag62
(g78
g64
NtRp209
(dp210
g67
(dp211
sg76
g72
sg69
(lp212
g62
(g83
g64
NtRp213
(dp214
g67
(dp215
g87
g88
ssg76
g209
sg69
(lp216
S'controller'
p217
asbag62
(g83
g64
NtRp218
(dp219
g67
(dp220
g94
g95
ssg76
g209
sg69
(lp221
S':'
asbag62
(g83
g64
NtRp222
(dp223
g67
(dp224
sg76
g209
sg69
(lp225
g62
(g63
g64
NtRp226
(dp227
g67
(dp228
g75
I5
ssg76
g222
sg69
(lp229
S'default'
p230
asbasbasbag62
(g78
g64
NtRp231
(dp232
g67
(dp233
sg76
g72
sg69
(lp234
g62
(g83
g64
NtRp235
(dp236
g67
(dp237
g87
g88
ssg76
g231
sg69
(lp238
S'cookies'
p239
asbag62
(g83
g64
NtRp240
(dp241
g67
(dp242
g94
g95
ssg76
g231
sg69
(lp243
S':'
asbag62
(g83
g64
NtRp244
(dp245
g67
(dp246
sg76
g231
sg69
(lp247
g62
(g63
g64
NtRp248
(dp249
g67
(dp250
g75
I5
ssg76
g244
sg69
(lp251
g62
(g71
g64
NtRp252
(dp253
g67
(dp254
g75
I4
ssg76
Nsg69
(lp255
g62
(g78
g64
NtRp256
(dp257
g67
(dp258
sg76
g252
sg69
(lp259
g62
(g83
g64
NtRp260
(dp261
g67
(dp262
g87
g88
ssg76
g256
sg69
(lp263
S'2bx85-qg1pj7t5s5_i'
p264
asbag62
(g83
g64
NtRp265
(dp266
g67
(dp267
g94
g95
ssg76
g256
sg69
(lp268
S':'
asbag62
(g83
g64
NtRp269
(dp270
g67
(dp271
sg76
g256
sg69
(lp272
g62
(g63
g64
NtRp273
(dp274
g67
(dp275
g75
I4
ssg76
g269
sg69
(lp276
g62
(g71
g64
NtRp277
(dp278
g67
(dp279
g75
I3
ssg76
Nsg69
(lp280
g62
(g78
g64
NtRp281
(dp282
g67
(dp283
sg76
g277
sg69
(lp284
g62
(g83
g64
NtRp285
(dp286
g67
(dp287
g87
g88
ssg76
g281
sg69
(lp288
S'comment'
p289
asbag62
(g83
g64
NtRp290
(dp291
g67
(dp292
g94
g95
ssg76
g281
sg69
(lp293
S':'
asbag62
(g83
g64
NtRp294
(dp295
g67
(dp296
sg76
g281
sg69
(lp297
g62
(g63
g64
NtRp298
(dp299
g67
(dp300
g75
I3
ssg76
g294
sg69
(lp301
S''
asbasbasbag62
(g78
g64
NtRp302
(dp303
g67
(dp304
sg76
g277
sg69
(lp305
g62
(g83
g64
NtRp306
(dp307
g67
(dp308
g87
g88
ssg76
g302
sg69
(lp309
S'domain'
p310
asbag62
(g83
g64
NtRp311
(dp312
g67
(dp313
g94
g95
ssg76
g302
sg69
(lp314
S':'
asbag62
(g83
g64
NtRp315
(dp316
g67
(dp317
sg76
g302
sg69
(lp318
g62
(g63
g64
NtRp319
(dp320
g67
(dp321
g75
I3
ssg76
g315
sg69
(lp322
S''
asbasbasbag62
(g78
g64
NtRp323
(dp324
g67
(dp325
sg76
g277
sg69
(lp326
g62
(g83
g64
NtRp327
(dp328
g67
(dp329
g87
g88
ssg76
g323
sg69
(lp330
S'expires'
p331
asbag62
(g83
g64
NtRp332
(dp333
g67
(dp334
g94
g95
ssg76
g323
sg69
(lp335
S':'
asbag62
(g83
g64
NtRp336
(dp337
g67
(dp338
sg76
g323
sg69
(lp339
g62
(g63
g64
NtRp340
(dp341
g67
(dp342
g75
I3
ssg76
g336
sg69
(lp343
S''
asbasbasbag62
(g78
g64
NtRp344
(dp345
g67
(dp346
sg76
g277
sg69
(lp347
g62
(g83
g64
NtRp348
(dp349
g67
(dp350
g87
g88
ssg76
g344
sg69
(lp351
S'httponly'
p352
asbag62
(g83
g64
NtRp353
(dp354
g67
(dp355
g94
g95
ssg76
g344
sg69
(lp356
S':'
asbag62
(g83
g64
NtRp357
(dp358
g67
(dp359
sg76
g344
sg69
(lp360
g62
(g63
g64
NtRp361
(dp362
g67
(dp363
g75
I3
ssg76
g357
sg69
(lp364
S''
asbasbasbag62
(g78
g64
NtRp365
(dp366
g67
(dp367
sg76
g277
sg69
(lp368
g62
(g83
g64
NtRp369
(dp370
g67
(dp371
g87
g88
ssg76
g365
sg69
(lp372
S'max-age'
p373
asbag62
(g83
g64
NtRp374
(dp375
g67
(dp376
g94
g95
ssg76
g365
sg69
(lp377
S':'
asbag62
(g83
g64
NtRp378
(dp379
g67
(dp380
sg76
g365
sg69
(lp381
g62
(g63
g64
NtRp382
(dp383
g67
(dp384
g75
I3
ssg76
g378
sg69
(lp385
S''
asbasbasbag62
(g78
g64
NtRp386
(dp387
g67
(dp388
sg76
g277
sg69
(lp389
g62
(g83
g64
NtRp390
(dp391
g67
(dp392
g87
g88
ssg76
g386
sg69
(lp393
S'path'
p394
asbag62
(g83
g64
NtRp395
(dp396
g67
(dp397
g94
g95
ssg76
g386
sg69
(lp398
S':'
asbag62
(g83
g64
NtRp399
(dp400
g67
(dp401
sg76
g386
sg69
(lp402
g62
(g63
g64
NtRp403
(dp404
g67
(dp405
g75
I3
ssg76
g399
sg69
(lp406
S''
asbasbasbag62
(g78
g64
NtRp407
(dp408
g67
(dp409
sg76
g277
sg69
(lp410
g62
(g83
g64
NtRp411
(dp412
g67
(dp413
g87
g88
ssg76
g407
sg69
(lp414
S'secure'
p415
asbag62
(g83
g64
NtRp416
(dp417
g67
(dp418
g94
g95
ssg76
g407
sg69
(lp419
S':'
asbag62
(g83
g64
NtRp420
(dp421
g67
(dp422
sg76
g407
sg69
(lp423
g62
(g63
g64
NtRp424
(dp425
g67
(dp426
g75
I3
ssg76
g420
sg69
(lp427
S''
asbasbasbag62
(g78
g64
NtRp428
(dp429
g67
(dp430
sg76
g277
sg69
(lp431
g62
(g83
g64
NtRp432
(dp433
g67
(dp434
g87
g88
ssg76
g428
sg69
(lp435
S'version'
p436
asbag62
(g83
g64
NtRp437
(dp438
g67
(dp439
g94
g95
ssg76
g428
sg69
(lp440
S':'
asbag62
(g83
g64
NtRp441
(dp442
g67
(dp443
sg76
g428
sg69
(lp444
g62
(g63
g64
NtRp445
(dp446
g67
(dp447
g75
I3
ssg76
g441
sg69
(lp448
S''
asbasbasbasbasbasbasbag62
(g78
g64
NtRp449
(dp450
g67
(dp451
sg76
g252
sg69
(lp452
g62
(g83
g64
NtRp453
(dp454
g67
(dp455
g87
g88
ssg76
g449
sg69
(lp456
S'2bx85-qg1pj7t5s5_r'
p457
asbag62
(g83
g64
NtRp458
(dp459
g67
(dp460
g94
g95
ssg76
g449
sg69
(lp461
S':'
asbag62
(g83
g64
NtRp462
(dp463
g67
(dp464
sg76
g449
sg69
(lp465
g62
(g63
g64
NtRp466
(dp467
g67
(dp468
g75
I4
ssg76
g462
sg69
(lp469
g62
(g71
g64
NtRp470
(dp471
g67
(dp472
g75
I3
ssg76
Nsg69
(lp473
g62
(g78
g64
NtRp474
(dp475
g67
(dp476
sg76
g470
sg69
(lp477
g62
(g83
g64
NtRp478
(dp479
g67
(dp480
g87
g88
ssg76
g474
sg69
(lp481
g289
asbag62
(g83
g64
NtRp482
(dp483
g67
(dp484
g94
g95
ssg76
g474
sg69
(lp485
S':'
asbag62
(g83
g64
NtRp486
(dp487
g67
(dp488
sg76
g474
sg69
(lp489
g62
(g63
g64
NtRp490
(dp491
g67
(dp492
g75
I3
ssg76
g486
sg69
(lp493
S''
asbasbasbag62
(g78
g64
NtRp494
(dp495
g67
(dp496
sg76
g470
sg69
(lp497
g62
(g83
g64
NtRp498
(dp499
g67
(dp500
g87
g88
ssg76
g494
sg69
(lp501
g310
asbag62
(g83
g64
NtRp502
(dp503
g67
(dp504
g94
g95
ssg76
g494
sg69
(lp505
S':'
asbag62
(g83
g64
NtRp506
(dp507
g67
(dp508
sg76
g494
sg69
(lp509
g62
(g63
g64
NtRp510
(dp511
g67
(dp512
g75
I3
ssg76
g506
sg69
(lp513
S''
asbasbasbag62
(g78
g64
NtRp514
(dp515
g67
(dp516
sg76
g470
sg69
(lp517
g62
(g83
g64
NtRp518
(dp519
g67
(dp520
g87
g88
ssg76
g514
sg69
(lp521
g331
asbag62
(g83
g64
NtRp522
(dp523
g67
(dp524
g94
g95
ssg76
g514
sg69
(lp525
S':'
asbag62
(g83
g64
NtRp526
(dp527
g67
(dp528
sg76
g514
sg69
(lp529
g62
(g63
g64
NtRp530
(dp531
g67
(dp532
g75
I3
ssg76
g526
sg69
(lp533
S''
asbasbasbag62
(g78
g64
NtRp534
(dp535
g67
(dp536
sg76
g470
sg69
(lp537
g62
(g83
g64
NtRp538
(dp539
g67
(dp540
g87
g88
ssg76
g534
sg69
(lp541
g352
asbag62
(g83
g64
NtRp542
(dp543
g67
(dp544
g94
g95
ssg76
g534
sg69
(lp545
S':'
asbag62
(g83
g64
NtRp546
(dp547
g67
(dp548
sg76
g534
sg69
(lp549
g62
(g63
g64
NtRp550
(dp551
g67
(dp552
g75
I3
ssg76
g546
sg69
(lp553
S''
asbasbasbag62
(g78
g64
NtRp554
(dp555
g67
(dp556
sg76
g470
sg69
(lp557
g62
(g83
g64
NtRp558
(dp559
g67
(dp560
g87
g88
ssg76
g554
sg69
(lp561
g373
asbag62
(g83
g64
NtRp562
(dp563
g67
(dp564
g94
g95
ssg76
g554
sg69
(lp565
S':'
asbag62
(g83
g64
NtRp566
(dp567
g67
(dp568
sg76
g554
sg69
(lp569
g62
(g63
g64
NtRp570
(dp571
g67
(dp572
g75
I3
ssg76
g566
sg69
(lp573
S''
asbasbasbag62
(g78
g64
NtRp574
(dp575
g67
(dp576
sg76
g470
sg69
(lp577
g62
(g83
g64
NtRp578
(dp579
g67
(dp580
g87
g88
ssg76
g574
sg69
(lp581
g394
asbag62
(g83
g64
NtRp582
(dp583
g67
(dp584
g94
g95
ssg76
g574
sg69
(lp585
S':'
asbag62
(g83
g64
NtRp586
(dp587
g67
(dp588
sg76
g574
sg69
(lp589
g62
(g63
g64
NtRp590
(dp591
g67
(dp592
g75
I3
ssg76
g586
sg69
(lp593
S''
asbasbasbag62
(g78
g64
NtRp594
(dp595
g67
(dp596
sg76
g470
sg69
(lp597
g62
(g83
g64
NtRp598
(dp599
g67
(dp600
g87
g88
ssg76
g594
sg69
(lp601
g415
asbag62
(g83
g64
NtRp602
(dp603
g67
(dp604
g94
g95
ssg76
g594
sg69
(lp605
S':'
asbag62
(g83
g64
NtRp606
(dp607
g67
(dp608
sg76
g594
sg69
(lp609
g62
(g63
g64
NtRp610
(dp611
g67
(dp612
g75
I3
ssg76
g606
sg69
(lp613
S''
asbasbasbag62
(g78
g64
NtRp614
(dp615
g67
(dp616
sg76
g470
sg69
(lp617
g62
(g83
g64
NtRp618
(dp619
g67
(dp620
g87
g88
ssg76
g614
sg69
(lp621
g436
asbag62
(g83
g64
NtRp622
(dp623
g67
(dp624
g94
g95
ssg76
g614
sg69
(lp625
S':'
asbag62
(g83
g64
NtRp626
(dp627
g67
(dp628
sg76
g614
sg69
(lp629
g62
(g63
g64
NtRp630
(dp631
g67
(dp632
g75
I3
ssg76
g626
sg69
(lp633
S''
asbasbasbasbasbasbasbag62
(g78
g64
NtRp634
(dp635
g67
(dp636
sg76
g252
sg69
(lp637
g62
(g83
g64
NtRp638
(dp639
g67
(dp640
g87
g88
ssg76
g634
sg69
(lp641
S'2bx85-qg1pj7t5s5_s'
p642
asbag62
(g83
g64
NtRp643
(dp644
g67
(dp645
g94
g95
ssg76
g634
sg69
(lp646
S':'
asbag62
(g83
g64
NtRp647
(dp648
g67
(dp649
sg76
g634
sg69
(lp650
g62
(g63
g64
NtRp651
(dp652
g67
(dp653
g75
I4
ssg76
g647
sg69
(lp654
g62
(g71
g64
NtRp655
(dp656
g67
(dp657
g75
I3
ssg76
Nsg69
(lp658
g62
(g78
g64
NtRp659
(dp660
g67
(dp661
sg76
g655
sg69
(lp662
g62
(g83
g64
NtRp663
(dp664
g67
(dp665
g87
g88
ssg76
g659
sg69
(lp666
g289
asbag62
(g83
g64
NtRp667
(dp668
g67
(dp669
g94
g95
ssg76
g659
sg69
(lp670
S':'
asbag62
(g83
g64
NtRp671
(dp672
g67
(dp673
sg76
g659
sg69
(lp674
g62
(g63
g64
NtRp675
(dp676
g67
(dp677
g75
I3
ssg76
g671
sg69
(lp678
S''
asbasbasbag62
(g78
g64
NtRp679
(dp680
g67
(dp681
sg76
g655
sg69
(lp682
g62
(g83
g64
NtRp683
(dp684
g67
(dp685
g87
g88
ssg76
g679
sg69
(lp686
g310
asbag62
(g83
g64
NtRp687
(dp688
g67
(dp689
g94
g95
ssg76
g679
sg69
(lp690
S':'
asbag62
(g83
g64
NtRp691
(dp692
g67
(dp693
sg76
g679
sg69
(lp694
g62
(g63
g64
NtRp695
(dp696
g67
(dp697
g75
I3
ssg76
g691
sg69
(lp698
S''
asbasbasbag62
(g78
g64
NtRp699
(dp700
g67
(dp701
sg76
g655
sg69
(lp702
g62
(g83
g64
NtRp703
(dp704
g67
(dp705
g87
g88
ssg76
g699
sg69
(lp706
g331
asbag62
(g83
g64
NtRp707
(dp708
g67
(dp709
g94
g95
ssg76
g699
sg69
(lp710
S':'
asbag62
(g83
g64
NtRp711
(dp712
g67
(dp713
sg76
g699
sg69
(lp714
g62
(g63
g64
NtRp715
(dp716
g67
(dp717
g75
I3
ssg76
g711
sg69
(lp718
S''
asbasbasbag62
(g78
g64
NtRp719
(dp720
g67
(dp721
sg76
g655
sg69
(lp722
g62
(g83
g64
NtRp723
(dp724
g67
(dp725
g87
g88
ssg76
g719
sg69
(lp726
g352
asbag62
(g83
g64
NtRp727
(dp728
g67
(dp729
g94
g95
ssg76
g719
sg69
(lp730
S':'
asbag62
(g83
g64
NtRp731
(dp732
g67
(dp733
sg76
g719
sg69
(lp734
g62
(g63
g64
NtRp735
(dp736
g67
(dp737
g75
I3
ssg76
g731
sg69
(lp738
S''
asbasbasbag62
(g78
g64
NtRp739
(dp740
g67
(dp741
sg76
g655
sg69
(lp742
g62
(g83
g64
NtRp743
(dp744
g67
(dp745
g87
g88
ssg76
g739
sg69
(lp746
g373
asbag62
(g83
g64
NtRp747
(dp748
g67
(dp749
g94
g95
ssg76
g739
sg69
(lp750
S':'
asbag62
(g83
g64
NtRp751
(dp752
g67
(dp753
sg76
g739
sg69
(lp754
g62
(g63
g64
NtRp755
(dp756
g67
(dp757
g75
I3
ssg76
g751
sg69
(lp758
S''
asbasbasbag62
(g78
g64
NtRp759
(dp760
g67
(dp761
sg76
g655
sg69
(lp762
g62
(g83
g64
NtRp763
(dp764
g67
(dp765
g87
g88
ssg76
g759
sg69
(lp766
g394
asbag62
(g83
g64
NtRp767
(dp768
g67
(dp769
g94
g95
ssg76
g759
sg69
(lp770
S':'
asbag62
(g83
g64
NtRp771
(dp772
g67
(dp773
sg76
g759
sg69
(lp774
g62
(g63
g64
NtRp775
(dp776
g67
(dp777
g75
I3
ssg76
g771
sg69
(lp778
S''
asbasbasbag62
(g78
g64
NtRp779
(dp780
g67
(dp781
sg76
g655
sg69
(lp782
g62
(g83
g64
NtRp783
(dp784
g67
(dp785
g87
g88
ssg76
g779
sg69
(lp786
g415
asbag62
(g83
g64
NtRp787
(dp788
g67
(dp789
g94
g95
ssg76
g779
sg69
(lp790
S':'
asbag62
(g83
g64
NtRp791
(dp792
g67
(dp793
sg76
g779
sg69
(lp794
g62
(g63
g64
NtRp795
(dp796
g67
(dp797
g75
I3
ssg76
g791
sg69
(lp798
S''
asbasbasbag62
(g78
g64
NtRp799
(dp800
g67
(dp801
sg76
g655
sg69
(lp802
g62
(g83
g64
NtRp803
(dp804
g67
(dp805
g87
g88
ssg76
g799
sg69
(lp806
g436
asbag62
(g83
g64
NtRp807
(dp808
g67
(dp809
g94
g95
ssg76
g799
sg69
(lp810
S':'
asbag62
(g83
g64
NtRp811
(dp812
g67
(dp813
sg76
g799
sg69
(lp814
g62
(g63
g64
NtRp815
(dp816
g67
(dp817
g75
I3
ssg76
g811
sg69
(lp818
S''
asbasbasbasbasbasbasbag62
(g78
g64
NtRp819
(dp820
g67
(dp821
sg76
g252
sg69
(lp822
g62
(g83
g64
NtRp823
(dp824
g67
(dp825
g87
g88
ssg76
g819
sg69
(lp826
S'2bx85-qg1pj7t5s5_vt'
p827
asbag62
(g83
g64
NtRp828
(dp829
g67
(dp830
g94
g95
ssg76
g819
sg69
(lp831
S':'
asbag62
(g83
g64
NtRp832
(dp833
g67
(dp834
sg76
g819
sg69
(lp835
g62
(g63
g64
NtRp836
(dp837
g67
(dp838
g75
I4
ssg76
g832
sg69
(lp839
g62
(g71
g64
NtRp840
(dp841
g67
(dp842
g75
I3
ssg76
Nsg69
(lp843
g62
(g78
g64
NtRp844
(dp845
g67
(dp846
sg76
g840
sg69
(lp847
g62
(g83
g64
NtRp848
(dp849
g67
(dp850
g87
g88
ssg76
g844
sg69
(lp851
g289
asbag62
(g83
g64
NtRp852
(dp853
g67
(dp854
g94
g95
ssg76
g844
sg69
(lp855
S':'
asbag62
(g83
g64
NtRp856
(dp857
g67
(dp858
sg76
g844
sg69
(lp859
g62
(g63
g64
NtRp860
(dp861
g67
(dp862
g75
I3
ssg76
g856
sg69
(lp863
S''
asbasbasbag62
(g78
g64
NtRp864
(dp865
g67
(dp866
sg76
g840
sg69
(lp867
g62
(g83
g64
NtRp868
(dp869
g67
(dp870
g87
g88
ssg76
g864
sg69
(lp871
g310
asbag62
(g83
g64
NtRp872
(dp873
g67
(dp874
g94
g95
ssg76
g864
sg69
(lp875
S':'
asbag62
(g83
g64
NtRp876
(dp877
g67
(dp878
sg76
g864
sg69
(lp879
g62
(g63
g64
NtRp880
(dp881
g67
(dp882
g75
I3
ssg76
g876
sg69
(lp883
S''
asbasbasbag62
(g78
g64
NtRp884
(dp885
g67
(dp886
sg76
g840
sg69
(lp887
g62
(g83
g64
NtRp888
(dp889
g67
(dp890
g87
g88
ssg76
g884
sg69
(lp891
g331
asbag62
(g83
g64
NtRp892
(dp893
g67
(dp894
g94
g95
ssg76
g884
sg69
(lp895
S':'
asbag62
(g83
g64
NtRp896
(dp897
g67
(dp898
sg76
g884
sg69
(lp899
g62
(g63
g64
NtRp900
(dp901
g67
(dp902
g75
I3
ssg76
g896
sg69
(lp903
S''
asbasbasbag62
(g78
g64
NtRp904
(dp905
g67
(dp906
sg76
g840
sg69
(lp907
g62
(g83
g64
NtRp908
(dp909
g67
(dp910
g87
g88
ssg76
g904
sg69
(lp911
g352
asbag62
(g83
g64
NtRp912
(dp913
g67
(dp914
g94
g95
ssg76
g904
sg69
(lp915
S':'
asbag62
(g83
g64
NtRp916
(dp917
g67
(dp918
sg76
g904
sg69
(lp919
g62
(g63
g64
NtRp920
(dp921
g67
(dp922
g75
I3
ssg76
g916
sg69
(lp923
S''
asbasbasbag62
(g78
g64
NtRp924
(dp925
g67
(dp926
sg76
g840
sg69
(lp927
g62
(g83
g64
NtRp928
(dp929
g67
(dp930
g87
g88
ssg76
g924
sg69
(lp931
g373
asbag62
(g83
g64
NtRp932
(dp933
g67
(dp934
g94
g95
ssg76
g924
sg69
(lp935
S':'
asbag62
(g83
g64
NtRp936
(dp937
g67
(dp938
sg76
g924
sg69
(lp939
g62
(g63
g64
NtRp940
(dp941
g67
(dp942
g75
I3
ssg76
g936
sg69
(lp943
S''
asbasbasbag62
(g78
g64
NtRp944
(dp945
g67
(dp946
sg76
g840
sg69
(lp947
g62
(g83
g64
NtRp948
(dp949
g67
(dp950
g87
g88
ssg76
g944
sg69
(lp951
g394
asbag62
(g83
g64
NtRp952
(dp953
g67
(dp954
g94
g95
ssg76
g944
sg69
(lp955
S':'
asbag62
(g83
g64
NtRp956
(dp957
g67
(dp958
sg76
g944
sg69
(lp959
g62
(g63
g64
NtRp960
(dp961
g67
(dp962
g75
I3
ssg76
g956
sg69
(lp963
S''
asbasbasbag62
(g78
g64
NtRp964
(dp965
g67
(dp966
sg76
g840
sg69
(lp967
g62
(g83
g64
NtRp968
(dp969
g67
(dp970
g87
g88
ssg76
g964
sg69
(lp971
g415
asbag62
(g83
g64
NtRp972
(dp973
g67
(dp974
g94
g95
ssg76
g964
sg69
(lp975
S':'
asbag62
(g83
g64
NtRp976
(dp977
g67
(dp978
sg76
g964
sg69
(lp979
g62
(g63
g64
NtRp980
(dp981
g67
(dp982
g75
I3
ssg76
g976
sg69
(lp983
S''
asbasbasbag62
(g78
g64
NtRp984
(dp985
g67
(dp986
sg76
g840
sg69
(lp987
g62
(g83
g64
NtRp988
(dp989
g67
(dp990
g87
g88
ssg76
g984
sg69
(lp991
g436
asbag62
(g83
g64
NtRp992
(dp993
g67
(dp994
g94
g95
ssg76
g984
sg69
(lp995
S':'
asbag62
(g83
g64
NtRp996
(dp997
g67
(dp998
sg76
g984
sg69
(lp999
g62
(g63
g64
NtRp1000
(dp1001
g67
(dp1002
g75
I3
ssg76
g996
sg69
(lp1003
S''
asbasbasbasbasbasbasbag62
(g78
g64
NtRp1004
(dp1005
g67
(dp1006
sg76
g252
sg69
(lp1007
g62
(g83
g64
NtRp1008
(dp1009
g67
(dp1010
g87
g88
ssg76
g1004
sg69
(lp1011
S'csrftoken'
p1012
asbag62
(g83
g64
NtRp1013
(dp1014
g67
(dp1015
g94
g95
ssg76
g1004
sg69
(lp1016
S':'
asbag62
(g83
g64
NtRp1017
(dp1018
g67
(dp1019
sg76
g1004
sg69
(lp1020
g62
(g63
g64
NtRp1021
(dp1022
g67
(dp1023
g75
I4
ssg76
g1017
sg69
(lp1024
g62
(g71
g64
NtRp1025
(dp1026
g67
(dp1027
g75
I3
ssg76
Nsg69
(lp1028
g62
(g78
g64
NtRp1029
(dp1030
g67
(dp1031
sg76
g1025
sg69
(lp1032
g62
(g83
g64
NtRp1033
(dp1034
g67
(dp1035
g87
g88
ssg76
g1029
sg69
(lp1036
g289
asbag62
(g83
g64
NtRp1037
(dp1038
g67
(dp1039
g94
g95
ssg76
g1029
sg69
(lp1040
S':'
asbag62
(g83
g64
NtRp1041
(dp1042
g67
(dp1043
sg76
g1029
sg69
(lp1044
g62
(g63
g64
NtRp1045
(dp1046
g67
(dp1047
g75
I3
ssg76
g1041
sg69
(lp1048
S''
asbasbasbag62
(g78
g64
NtRp1049
(dp1050
g67
(dp1051
sg76
g1025
sg69
(lp1052
g62
(g83
g64
NtRp1053
(dp1054
g67
(dp1055
g87
g88
ssg76
g1049
sg69
(lp1056
g310
asbag62
(g83
g64
NtRp1057
(dp1058
g67
(dp1059
g94
g95
ssg76
g1049
sg69
(lp1060
S':'
asbag62
(g83
g64
NtRp1061
(dp1062
g67
(dp1063
sg76
g1049
sg69
(lp1064
g62
(g63
g64
NtRp1065
(dp1066
g67
(dp1067
g75
I3
ssg76
g1061
sg69
(lp1068
S''
asbasbasbag62
(g78
g64
NtRp1069
(dp1070
g67
(dp1071
sg76
g1025
sg69
(lp1072
g62
(g83
g64
NtRp1073
(dp1074
g67
(dp1075
g87
g88
ssg76
g1069
sg69
(lp1076
g331
asbag62
(g83
g64
NtRp1077
(dp1078
g67
(dp1079
g94
g95
ssg76
g1069
sg69
(lp1080
S':'
asbag62
(g83
g64
NtRp1081
(dp1082
g67
(dp1083
sg76
g1069
sg69
(lp1084
g62
(g63
g64
NtRp1085
(dp1086
g67
(dp1087
g75
I3
ssg76
g1081
sg69
(lp1088
S''
asbasbasbag62
(g78
g64
NtRp1089
(dp1090
g67
(dp1091
sg76
g1025
sg69
(lp1092
g62
(g83
g64
NtRp1093
(dp1094
g67
(dp1095
g87
g88
ssg76
g1089
sg69
(lp1096
g352
asbag62
(g83
g64
NtRp1097
(dp1098
g67
(dp1099
g94
g95
ssg76
g1089
sg69
(lp1100
S':'
asbag62
(g83
g64
NtRp1101
(dp1102
g67
(dp1103
sg76
g1089
sg69
(lp1104
g62
(g63
g64
NtRp1105
(dp1106
g67
(dp1107
g75
I3
ssg76
g1101
sg69
(lp1108
S''
asbasbasbag62
(g78
g64
NtRp1109
(dp1110
g67
(dp1111
sg76
g1025
sg69
(lp1112
g62
(g83
g64
NtRp1113
(dp1114
g67
(dp1115
g87
g88
ssg76
g1109
sg69
(lp1116
g373
asbag62
(g83
g64
NtRp1117
(dp1118
g67
(dp1119
g94
g95
ssg76
g1109
sg69
(lp1120
S':'
asbag62
(g83
g64
NtRp1121
(dp1122
g67
(dp1123
sg76
g1109
sg69
(lp1124
g62
(g63
g64
NtRp1125
(dp1126
g67
(dp1127
g75
I3
ssg76
g1121
sg69
(lp1128
S''
asbasbasbag62
(g78
g64
NtRp1129
(dp1130
g67
(dp1131
sg76
g1025
sg69
(lp1132
g62
(g83
g64
NtRp1133
(dp1134
g67
(dp1135
g87
g88
ssg76
g1129
sg69
(lp1136
g394
asbag62
(g83
g64
NtRp1137
(dp1138
g67
(dp1139
g94
g95
ssg76
g1129
sg69
(lp1140
S':'
asbag62
(g83
g64
NtRp1141
(dp1142
g67
(dp1143
sg76
g1129
sg69
(lp1144
g62
(g63
g64
NtRp1145
(dp1146
g67
(dp1147
g75
I3
ssg76
g1141
sg69
(lp1148
S''
asbasbasbag62
(g78
g64
NtRp1149
(dp1150
g67
(dp1151
sg76
g1025
sg69
(lp1152
g62
(g83
g64
NtRp1153
(dp1154
g67
(dp1155
g87
g88
ssg76
g1149
sg69
(lp1156
g415
asbag62
(g83
g64
NtRp1157
(dp1158
g67
(dp1159
g94
g95
ssg76
g1149
sg69
(lp1160
S':'
asbag62
(g83
g64
NtRp1161
(dp1162
g67
(dp1163
sg76
g1149
sg69
(lp1164
g62
(g63
g64
NtRp1165
(dp1166
g67
(dp1167
g75
I3
ssg76
g1161
sg69
(lp1168
S''
asbasbasbag62
(g78
g64
NtRp1169
(dp1170
g67
(dp1171
sg76
g1025
sg69
(lp1172
g62
(g83
g64
NtRp1173
(dp1174
g67
(dp1175
g87
g88
ssg76
g1169
sg69
(lp1176
g436
asbag62
(g83
g64
NtRp1177
(dp1178
g67
(dp1179
g94
g95
ssg76
g1169
sg69
(lp1180
S':'
asbag62
(g83
g64
NtRp1181
(dp1182
g67
(dp1183
sg76
g1169
sg69
(lp1184
g62
(g63
g64
NtRp1185
(dp1186
g67
(dp1187
g75
I3
ssg76
g1181
sg69
(lp1188
S''
asbasbasbasbasbasbasbag62
(g78
g64
NtRp1189
(dp1190
g67
(dp1191
sg76
g252
sg69
(lp1192
g62
(g83
g64
NtRp1193
(dp1194
g67
(dp1195
g87
g88
ssg76
g1189
sg69
(lp1196
S'session_id_admin'
p1197
asbag62
(g83
g64
NtRp1198
(dp1199
g67
(dp1200
g94
g95
ssg76
g1189
sg69
(lp1201
S':'
asbag62
(g83
g64
NtRp1202
(dp1203
g67
(dp1204
sg76
g1189
sg69
(lp1205
g62
(g63
g64
NtRp1206
(dp1207
g67
(dp1208
g75
I4
ssg76
g1202
sg69
(lp1209
g62
(g71
g64
NtRp1210
(dp1211
g67
(dp1212
g75
I3
ssg76
Nsg69
(lp1213
g62
(g78
g64
NtRp1214
(dp1215
g67
(dp1216
sg76
g1210
sg69
(lp1217
g62
(g83
g64
NtRp1218
(dp1219
g67
(dp1220
g87
g88
ssg76
g1214
sg69
(lp1221
g289
asbag62
(g83
g64
NtRp1222
(dp1223
g67
(dp1224
g94
g95
ssg76
g1214
sg69
(lp1225
S':'
asbag62
(g83
g64
NtRp1226
(dp1227
g67
(dp1228
sg76
g1214
sg69
(lp1229
g62
(g63
g64
NtRp1230
(dp1231
g67
(dp1232
g75
I3
ssg76
g1226
sg69
(lp1233
S''
asbasbasbag62
(g78
g64
NtRp1234
(dp1235
g67
(dp1236
sg76
g1210
sg69
(lp1237
g62
(g83
g64
NtRp1238
(dp1239
g67
(dp1240
g87
g88
ssg76
g1234
sg69
(lp1241
g310
asbag62
(g83
g64
NtRp1242
(dp1243
g67
(dp1244
g94
g95
ssg76
g1234
sg69
(lp1245
S':'
asbag62
(g83
g64
NtRp1246
(dp1247
g67
(dp1248
sg76
g1234
sg69
(lp1249
g62
(g63
g64
NtRp1250
(dp1251
g67
(dp1252
g75
I3
ssg76
g1246
sg69
(lp1253
S''
asbasbasbag62
(g78
g64
NtRp1254
(dp1255
g67
(dp1256
sg76
g1210
sg69
(lp1257
g62
(g83
g64
NtRp1258
(dp1259
g67
(dp1260
g87
g88
ssg76
g1254
sg69
(lp1261
g331
asbag62
(g83
g64
NtRp1262
(dp1263
g67
(dp1264
g94
g95
ssg76
g1254
sg69
(lp1265
S':'
asbag62
(g83
g64
NtRp1266
(dp1267
g67
(dp1268
sg76
g1254
sg69
(lp1269
g62
(g63
g64
NtRp1270
(dp1271
g67
(dp1272
g75
I3
ssg76
g1266
sg69
(lp1273
S''
asbasbasbag62
(g78
g64
NtRp1274
(dp1275
g67
(dp1276
sg76
g1210
sg69
(lp1277
g62
(g83
g64
NtRp1278
(dp1279
g67
(dp1280
g87
g88
ssg76
g1274
sg69
(lp1281
g352
asbag62
(g83
g64
NtRp1282
(dp1283
g67
(dp1284
g94
g95
ssg76
g1274
sg69
(lp1285
S':'
asbag62
(g83
g64
NtRp1286
(dp1287
g67
(dp1288
sg76
g1274
sg69
(lp1289
g62
(g63
g64
NtRp1290
(dp1291
g67
(dp1292
g75
I3
ssg76
g1286
sg69
(lp1293
S''
asbasbasbag62
(g78
g64
NtRp1294
(dp1295
g67
(dp1296
sg76
g1210
sg69
(lp1297
g62
(g83
g64
NtRp1298
(dp1299
g67
(dp1300
g87
g88
ssg76
g1294
sg69
(lp1301
g373
asbag62
(g83
g64
NtRp1302
(dp1303
g67
(dp1304
g94
g95
ssg76
g1294
sg69
(lp1305
S':'
asbag62
(g83
g64
NtRp1306
(dp1307
g67
(dp1308
sg76
g1294
sg69
(lp1309
g62
(g63
g64
NtRp1310
(dp1311
g67
(dp1312
g75
I3
ssg76
g1306
sg69
(lp1313
S''
asbasbasbag62
(g78
g64
NtRp1314
(dp1315
g67
(dp1316
sg76
g1210
sg69
(lp1317
g62
(g83
g64
NtRp1318
(dp1319
g67
(dp1320
g87
g88
ssg76
g1314
sg69
(lp1321
g394
asbag62
(g83
g64
NtRp1322
(dp1323
g67
(dp1324
g94
g95
ssg76
g1314
sg69
(lp1325
S':'
asbag62
(g83
g64
NtRp1326
(dp1327
g67
(dp1328
sg76
g1314
sg69
(lp1329
g62
(g63
g64
NtRp1330
(dp1331
g67
(dp1332
g75
I3
ssg76
g1326
sg69
(lp1333
S''
asbasbasbag62
(g78
g64
NtRp1334
(dp1335
g67
(dp1336
sg76
g1210
sg69
(lp1337
g62
(g83
g64
NtRp1338
(dp1339
g67
(dp1340
g87
g88
ssg76
g1334
sg69
(lp1341
g415
asbag62
(g83
g64
NtRp1342
(dp1343
g67
(dp1344
g94
g95
ssg76
g1334
sg69
(lp1345
S':'
asbag62
(g83
g64
NtRp1346
(dp1347
g67
(dp1348
sg76
g1334
sg69
(lp1349
g62
(g63
g64
NtRp1350
(dp1351
g67
(dp1352
g75
I3
ssg76
g1346
sg69
(lp1353
S''
asbasbasbag62
(g78
g64
NtRp1354
(dp1355
g67
(dp1356
sg76
g1210
sg69
(lp1357
g62
(g83
g64
NtRp1358
(dp1359
g67
(dp1360
g87
g88
ssg76
g1354
sg69
(lp1361
g436
asbag62
(g83
g64
NtRp1362
(dp1363
g67
(dp1364
g94
g95
ssg76
g1354
sg69
(lp1365
S':'
asbag62
(g83
g64
NtRp1366
(dp1367
g67
(dp1368
sg76
g1354
sg69
(lp1369
g62
(g63
g64
NtRp1370
(dp1371
g67
(dp1372
g75
I3
ssg76
g1366
sg69
(lp1373
S''
asbasbasbasbasbasbasbag62
(g78
g64
NtRp1374
(dp1375
g67
(dp1376
sg76
g252
sg69
(lp1377
g62
(g83
g64
NtRp1378
(dp1379
g67
(dp1380
g87
g88
ssg76
g1374
sg69
(lp1381
S'session_id_base'
p1382
asbag62
(g83
g64
NtRp1383
(dp1384
g67
(dp1385
g94
g95
ssg76
g1374
sg69
(lp1386
S':'
asbag62
(g83
g64
NtRp1387
(dp1388
g67
(dp1389
sg76
g1374
sg69
(lp1390
g62
(g63
g64
NtRp1391
(dp1392
g67
(dp1393
g75
I4
ssg76
g1387
sg69
(lp1394
g62
(g71
g64
NtRp1395
(dp1396
g67
(dp1397
g75
I3
ssg76
Nsg69
(lp1398
g62
(g78
g64
NtRp1399
(dp1400
g67
(dp1401
sg76
g1395
sg69
(lp1402
g62
(g83
g64
NtRp1403
(dp1404
g67
(dp1405
g87
g88
ssg76
g1399
sg69
(lp1406
g289
asbag62
(g83
g64
NtRp1407
(dp1408
g67
(dp1409
g94
g95
ssg76
g1399
sg69
(lp1410
S':'
asbag62
(g83
g64
NtRp1411
(dp1412
g67
(dp1413
sg76
g1399
sg69
(lp1414
g62
(g63
g64
NtRp1415
(dp1416
g67
(dp1417
g75
I3
ssg76
g1411
sg69
(lp1418
S''
asbasbasbag62
(g78
g64
NtRp1419
(dp1420
g67
(dp1421
sg76
g1395
sg69
(lp1422
g62
(g83
g64
NtRp1423
(dp1424
g67
(dp1425
g87
g88
ssg76
g1419
sg69
(lp1426
g310
asbag62
(g83
g64
NtRp1427
(dp1428
g67
(dp1429
g94
g95
ssg76
g1419
sg69
(lp1430
S':'
asbag62
(g83
g64
NtRp1431
(dp1432
g67
(dp1433
sg76
g1419
sg69
(lp1434
g62
(g63
g64
NtRp1435
(dp1436
g67
(dp1437
g75
I3
ssg76
g1431
sg69
(lp1438
S''
asbasbasbag62
(g78
g64
NtRp1439
(dp1440
g67
(dp1441
sg76
g1395
sg69
(lp1442
g62
(g83
g64
NtRp1443
(dp1444
g67
(dp1445
g87
g88
ssg76
g1439
sg69
(lp1446
g331
asbag62
(g83
g64
NtRp1447
(dp1448
g67
(dp1449
g94
g95
ssg76
g1439
sg69
(lp1450
S':'
asbag62
(g83
g64
NtRp1451
(dp1452
g67
(dp1453
sg76
g1439
sg69
(lp1454
g62
(g63
g64
NtRp1455
(dp1456
g67
(dp1457
g75
I3
ssg76
g1451
sg69
(lp1458
S''
asbasbasbag62
(g78
g64
NtRp1459
(dp1460
g67
(dp1461
sg76
g1395
sg69
(lp1462
g62
(g83
g64
NtRp1463
(dp1464
g67
(dp1465
g87
g88
ssg76
g1459
sg69
(lp1466
g352
asbag62
(g83
g64
NtRp1467
(dp1468
g67
(dp1469
g94
g95
ssg76
g1459
sg69
(lp1470
S':'
asbag62
(g83
g64
NtRp1471
(dp1472
g67
(dp1473
sg76
g1459
sg69
(lp1474
g62
(g63
g64
NtRp1475
(dp1476
g67
(dp1477
g75
I3
ssg76
g1471
sg69
(lp1478
S''
asbasbasbag62
(g78
g64
NtRp1479
(dp1480
g67
(dp1481
sg76
g1395
sg69
(lp1482
g62
(g83
g64
NtRp1483
(dp1484
g67
(dp1485
g87
g88
ssg76
g1479
sg69
(lp1486
g373
asbag62
(g83
g64
NtRp1487
(dp1488
g67
(dp1489
g94
g95
ssg76
g1479
sg69
(lp1490
S':'
asbag62
(g83
g64
NtRp1491
(dp1492
g67
(dp1493
sg76
g1479
sg69
(lp1494
g62
(g63
g64
NtRp1495
(dp1496
g67
(dp1497
g75
I3
ssg76
g1491
sg69
(lp1498
S''
asbasbasbag62
(g78
g64
NtRp1499
(dp1500
g67
(dp1501
sg76
g1395
sg69
(lp1502
g62
(g83
g64
NtRp1503
(dp1504
g67
(dp1505
g87
g88
ssg76
g1499
sg69
(lp1506
g394
asbag62
(g83
g64
NtRp1507
(dp1508
g67
(dp1509
g94
g95
ssg76
g1499
sg69
(lp1510
S':'
asbag62
(g83
g64
NtRp1511
(dp1512
g67
(dp1513
sg76
g1499
sg69
(lp1514
g62
(g63
g64
NtRp1515
(dp1516
g67
(dp1517
g75
I3
ssg76
g1511
sg69
(lp1518
S''
asbasbasbag62
(g78
g64
NtRp1519
(dp1520
g67
(dp1521
sg76
g1395
sg69
(lp1522
g62
(g83
g64
NtRp1523
(dp1524
g67
(dp1525
g87
g88
ssg76
g1519
sg69
(lp1526
g415
asbag62
(g83
g64
NtRp1527
(dp1528
g67
(dp1529
g94
g95
ssg76
g1519
sg69
(lp1530
S':'
asbag62
(g83
g64
NtRp1531
(dp1532
g67
(dp1533
sg76
g1519
sg69
(lp1534
g62
(g63
g64
NtRp1535
(dp1536
g67
(dp1537
g75
I3
ssg76
g1531
sg69
(lp1538
S''
asbasbasbag62
(g78
g64
NtRp1539
(dp1540
g67
(dp1541
sg76
g1395
sg69
(lp1542
g62
(g83
g64
NtRp1543
(dp1544
g67
(dp1545
g87
g88
ssg76
g1539
sg69
(lp1546
g436
asbag62
(g83
g64
NtRp1547
(dp1548
g67
(dp1549
g94
g95
ssg76
g1539
sg69
(lp1550
S':'
asbag62
(g83
g64
NtRp1551
(dp1552
g67
(dp1553
sg76
g1539
sg69
(lp1554
g62
(g63
g64
NtRp1555
(dp1556
g67
(dp1557
g75
I3
ssg76
g1551
sg69
(lp1558
S''
asbasbasbasbasbasbasbag62
(g78
g64
NtRp1559
(dp1560
g67
(dp1561
sg76
g252
sg69
(lp1562
g62
(g83
g64
NtRp1563
(dp1564
g67
(dp1565
g87
g88
ssg76
g1559
sg69
(lp1566
S'session_id_front'
p1567
asbag62
(g83
g64
NtRp1568
(dp1569
g67
(dp1570
g94
g95
ssg76
g1559
sg69
(lp1571
S':'
asbag62
(g83
g64
NtRp1572
(dp1573
g67
(dp1574
sg76
g1559
sg69
(lp1575
g62
(g63
g64
NtRp1576
(dp1577
g67
(dp1578
g75
I4
ssg76
g1572
sg69
(lp1579
g62
(g71
g64
NtRp1580
(dp1581
g67
(dp1582
g75
I3
ssg76
Nsg69
(lp1583
g62
(g78
g64
NtRp1584
(dp1585
g67
(dp1586
sg76
g1580
sg69
(lp1587
g62
(g83
g64
NtRp1588
(dp1589
g67
(dp1590
g87
g88
ssg76
g1584
sg69
(lp1591
g289
asbag62
(g83
g64
NtRp1592
(dp1593
g67
(dp1594
g94
g95
ssg76
g1584
sg69
(lp1595
S':'
asbag62
(g83
g64
NtRp1596
(dp1597
g67
(dp1598
sg76
g1584
sg69
(lp1599
g62
(g63
g64
NtRp1600
(dp1601
g67
(dp1602
g75
I3
ssg76
g1596
sg69
(lp1603
S''
asbasbasbag62
(g78
g64
NtRp1604
(dp1605
g67
(dp1606
sg76
g1580
sg69
(lp1607
g62
(g83
g64
NtRp1608
(dp1609
g67
(dp1610
g87
g88
ssg76
g1604
sg69
(lp1611
g310
asbag62
(g83
g64
NtRp1612
(dp1613
g67
(dp1614
g94
g95
ssg76
g1604
sg69
(lp1615
S':'
asbag62
(g83
g64
NtRp1616
(dp1617
g67
(dp1618
sg76
g1604
sg69
(lp1619
g62
(g63
g64
NtRp1620
(dp1621
g67
(dp1622
g75
I3
ssg76
g1616
sg69
(lp1623
S''
asbasbasbag62
(g78
g64
NtRp1624
(dp1625
g67
(dp1626
sg76
g1580
sg69
(lp1627
g62
(g83
g64
NtRp1628
(dp1629
g67
(dp1630
g87
g88
ssg76
g1624
sg69
(lp1631
g331
asbag62
(g83
g64
NtRp1632
(dp1633
g67
(dp1634
g94
g95
ssg76
g1624
sg69
(lp1635
S':'
asbag62
(g83
g64
NtRp1636
(dp1637
g67
(dp1638
sg76
g1624
sg69
(lp1639
g62
(g63
g64
NtRp1640
(dp1641
g67
(dp1642
g75
I3
ssg76
g1636
sg69
(lp1643
S''
asbasbasbag62
(g78
g64
NtRp1644
(dp1645
g67
(dp1646
sg76
g1580
sg69
(lp1647
g62
(g83
g64
NtRp1648
(dp1649
g67
(dp1650
g87
g88
ssg76
g1644
sg69
(lp1651
g352
asbag62
(g83
g64
NtRp1652
(dp1653
g67
(dp1654
g94
g95
ssg76
g1644
sg69
(lp1655
S':'
asbag62
(g83
g64
NtRp1656
(dp1657
g67
(dp1658
sg76
g1644
sg69
(lp1659
g62
(g63
g64
NtRp1660
(dp1661
g67
(dp1662
g75
I3
ssg76
g1656
sg69
(lp1663
S''
asbasbasbag62
(g78
g64
NtRp1664
(dp1665
g67
(dp1666
sg76
g1580
sg69
(lp1667
g62
(g83
g64
NtRp1668
(dp1669
g67
(dp1670
g87
g88
ssg76
g1664
sg69
(lp1671
g373
asbag62
(g83
g64
NtRp1672
(dp1673
g67
(dp1674
g94
g95
ssg76
g1664
sg69
(lp1675
S':'
asbag62
(g83
g64
NtRp1676
(dp1677
g67
(dp1678
sg76
g1664
sg69
(lp1679
g62
(g63
g64
NtRp1680
(dp1681
g67
(dp1682
g75
I3
ssg76
g1676
sg69
(lp1683
S''
asbasbasbag62
(g78
g64
NtRp1684
(dp1685
g67
(dp1686
sg76
g1580
sg69
(lp1687
g62
(g83
g64
NtRp1688
(dp1689
g67
(dp1690
g87
g88
ssg76
g1684
sg69
(lp1691
g394
asbag62
(g83
g64
NtRp1692
(dp1693
g67
(dp1694
g94
g95
ssg76
g1684
sg69
(lp1695
S':'
asbag62
(g83
g64
NtRp1696
(dp1697
g67
(dp1698
sg76
g1684
sg69
(lp1699
g62
(g63
g64
NtRp1700
(dp1701
g67
(dp1702
g75
I3
ssg76
g1696
sg69
(lp1703
S''
asbasbasbag62
(g78
g64
NtRp1704
(dp1705
g67
(dp1706
sg76
g1580
sg69
(lp1707
g62
(g83
g64
NtRp1708
(dp1709
g67
(dp1710
g87
g88
ssg76
g1704
sg69
(lp1711
g415
asbag62
(g83
g64
NtRp1712
(dp1713
g67
(dp1714
g94
g95
ssg76
g1704
sg69
(lp1715
S':'
asbag62
(g83
g64
NtRp1716
(dp1717
g67
(dp1718
sg76
g1704
sg69
(lp1719
g62
(g63
g64
NtRp1720
(dp1721
g67
(dp1722
g75
I3
ssg76
g1716
sg69
(lp1723
S''
asbasbasbag62
(g78
g64
NtRp1724
(dp1725
g67
(dp1726
sg76
g1580
sg69
(lp1727
g62
(g83
g64
NtRp1728
(dp1729
g67
(dp1730
g87
g88
ssg76
g1724
sg69
(lp1731
g436
asbag62
(g83
g64
NtRp1732
(dp1733
g67
(dp1734
g94
g95
ssg76
g1724
sg69
(lp1735
S':'
asbag62
(g83
g64
NtRp1736
(dp1737
g67
(dp1738
sg76
g1724
sg69
(lp1739
g62
(g63
g64
NtRp1740
(dp1741
g67
(dp1742
g75
I3
ssg76
g1736
sg69
(lp1743
S''
asbasbasbasbasbasbasbag62
(g78
g64
NtRp1744
(dp1745
g67
(dp1746
sg76
g252
sg69
(lp1747
g62
(g83
g64
NtRp1748
(dp1749
g67
(dp1750
g87
g88
ssg76
g1744
sg69
(lp1751
S'session_id_intranet'
p1752
asbag62
(g83
g64
NtRp1753
(dp1754
g67
(dp1755
g94
g95
ssg76
g1744
sg69
(lp1756
S':'
asbag62
(g83
g64
NtRp1757
(dp1758
g67
(dp1759
sg76
g1744
sg69
(lp1760
g62
(g63
g64
NtRp1761
(dp1762
g67
(dp1763
g75
I4
ssg76
g1757
sg69
(lp1764
g62
(g71
g64
NtRp1765
(dp1766
g67
(dp1767
g75
I3
ssg76
Nsg69
(lp1768
g62
(g78
g64
NtRp1769
(dp1770
g67
(dp1771
sg76
g1765
sg69
(lp1772
g62
(g83
g64
NtRp1773
(dp1774
g67
(dp1775
g87
g88
ssg76
g1769
sg69
(lp1776
g289
asbag62
(g83
g64
NtRp1777
(dp1778
g67
(dp1779
g94
g95
ssg76
g1769
sg69
(lp1780
S':'
asbag62
(g83
g64
NtRp1781
(dp1782
g67
(dp1783
sg76
g1769
sg69
(lp1784
g62
(g63
g64
NtRp1785
(dp1786
g67
(dp1787
g75
I3
ssg76
g1781
sg69
(lp1788
S''
asbasbasbag62
(g78
g64
NtRp1789
(dp1790
g67
(dp1791
sg76
g1765
sg69
(lp1792
g62
(g83
g64
NtRp1793
(dp1794
g67
(dp1795
g87
g88
ssg76
g1789
sg69
(lp1796
g310
asbag62
(g83
g64
NtRp1797
(dp1798
g67
(dp1799
g94
g95
ssg76
g1789
sg69
(lp1800
S':'
asbag62
(g83
g64
NtRp1801
(dp1802
g67
(dp1803
sg76
g1789
sg69
(lp1804
g62
(g63
g64
NtRp1805
(dp1806
g67
(dp1807
g75
I3
ssg76
g1801
sg69
(lp1808
S''
asbasbasbag62
(g78
g64
NtRp1809
(dp1810
g67
(dp1811
sg76
g1765
sg69
(lp1812
g62
(g83
g64
NtRp1813
(dp1814
g67
(dp1815
g87
g88
ssg76
g1809
sg69
(lp1816
g331
asbag62
(g83
g64
NtRp1817
(dp1818
g67
(dp1819
g94
g95
ssg76
g1809
sg69
(lp1820
S':'
asbag62
(g83
g64
NtRp1821
(dp1822
g67
(dp1823
sg76
g1809
sg69
(lp1824
g62
(g63
g64
NtRp1825
(dp1826
g67
(dp1827
g75
I3
ssg76
g1821
sg69
(lp1828
S''
asbasbasbag62
(g78
g64
NtRp1829
(dp1830
g67
(dp1831
sg76
g1765
sg69
(lp1832
g62
(g83
g64
NtRp1833
(dp1834
g67
(dp1835
g87
g88
ssg76
g1829
sg69
(lp1836
g352
asbag62
(g83
g64
NtRp1837
(dp1838
g67
(dp1839
g94
g95
ssg76
g1829
sg69
(lp1840
S':'
asbag62
(g83
g64
NtRp1841
(dp1842
g67
(dp1843
sg76
g1829
sg69
(lp1844
g62
(g63
g64
NtRp1845
(dp1846
g67
(dp1847
g75
I3
ssg76
g1841
sg69
(lp1848
S''
asbasbasbag62
(g78
g64
NtRp1849
(dp1850
g67
(dp1851
sg76
g1765
sg69
(lp1852
g62
(g83
g64
NtRp1853
(dp1854
g67
(dp1855
g87
g88
ssg76
g1849
sg69
(lp1856
g373
asbag62
(g83
g64
NtRp1857
(dp1858
g67
(dp1859
g94
g95
ssg76
g1849
sg69
(lp1860
S':'
asbag62
(g83
g64
NtRp1861
(dp1862
g67
(dp1863
sg76
g1849
sg69
(lp1864
g62
(g63
g64
NtRp1865
(dp1866
g67
(dp1867
g75
I3
ssg76
g1861
sg69
(lp1868
S''
asbasbasbag62
(g78
g64
NtRp1869
(dp1870
g67
(dp1871
sg76
g1765
sg69
(lp1872
g62
(g83
g64
NtRp1873
(dp1874
g67
(dp1875
g87
g88
ssg76
g1869
sg69
(lp1876
g394
asbag62
(g83
g64
NtRp1877
(dp1878
g67
(dp1879
g94
g95
ssg76
g1869
sg69
(lp1880
S':'
asbag62
(g83
g64
NtRp1881
(dp1882
g67
(dp1883
sg76
g1869
sg69
(lp1884
g62
(g63
g64
NtRp1885
(dp1886
g67
(dp1887
g75
I3
ssg76
g1881
sg69
(lp1888
S''
asbasbasbag62
(g78
g64
NtRp1889
(dp1890
g67
(dp1891
sg76
g1765
sg69
(lp1892
g62
(g83
g64
NtRp1893
(dp1894
g67
(dp1895
g87
g88
ssg76
g1889
sg69
(lp1896
g415
asbag62
(g83
g64
NtRp1897
(dp1898
g67
(dp1899
g94
g95
ssg76
g1889
sg69
(lp1900
S':'
asbag62
(g83
g64
NtRp1901
(dp1902
g67
(dp1903
sg76
g1889
sg69
(lp1904
g62
(g63
g64
NtRp1905
(dp1906
g67
(dp1907
g75
I3
ssg76
g1901
sg69
(lp1908
S''
asbasbasbag62
(g78
g64
NtRp1909
(dp1910
g67
(dp1911
sg76
g1765
sg69
(lp1912
g62
(g83
g64
NtRp1913
(dp1914
g67
(dp1915
g87
g88
ssg76
g1909
sg69
(lp1916
g436
asbag62
(g83
g64
NtRp1917
(dp1918
g67
(dp1919
g94
g95
ssg76
g1909
sg69
(lp1920
S':'
asbag62
(g83
g64
NtRp1921
(dp1922
g67
(dp1923
sg76
g1909
sg69
(lp1924
g62
(g63
g64
NtRp1925
(dp1926
g67
(dp1927
g75
I3
ssg76
g1921
sg69
(lp1928
S''
asbasbasbasbasbasbasbag62
(g78
g64
NtRp1929
(dp1930
g67
(dp1931
sg76
g252
sg69
(lp1932
g62
(g83
g64
NtRp1933
(dp1934
g67
(dp1935
g87
g88
ssg76
g1929
sg69
(lp1936
S'session_id_panel'
p1937
asbag62
(g83
g64
NtRp1938
(dp1939
g67
(dp1940
g94
g95
ssg76
g1929
sg69
(lp1941
S':'
asbag62
(g83
g64
NtRp1942
(dp1943
g67
(dp1944
sg76
g1929
sg69
(lp1945
g62
(g63
g64
NtRp1946
(dp1947
g67
(dp1948
g75
I4
ssg76
g1942
sg69
(lp1949
g62
(g71
g64
NtRp1950
(dp1951
g67
(dp1952
g75
I3
ssg76
Nsg69
(lp1953
g62
(g78
g64
NtRp1954
(dp1955
g67
(dp1956
sg76
g1950
sg69
(lp1957
g62
(g83
g64
NtRp1958
(dp1959
g67
(dp1960
g87
g88
ssg76
g1954
sg69
(lp1961
g289
asbag62
(g83
g64
NtRp1962
(dp1963
g67
(dp1964
g94
g95
ssg76
g1954
sg69
(lp1965
S':'
asbag62
(g83
g64
NtRp1966
(dp1967
g67
(dp1968
sg76
g1954
sg69
(lp1969
g62
(g63
g64
NtRp1970
(dp1971
g67
(dp1972
g75
I3
ssg76
g1966
sg69
(lp1973
S''
asbasbasbag62
(g78
g64
NtRp1974
(dp1975
g67
(dp1976
sg76
g1950
sg69
(lp1977
g62
(g83
g64
NtRp1978
(dp1979
g67
(dp1980
g87
g88
ssg76
g1974
sg69
(lp1981
g310
asbag62
(g83
g64
NtRp1982
(dp1983
g67
(dp1984
g94
g95
ssg76
g1974
sg69
(lp1985
S':'
asbag62
(g83
g64
NtRp1986
(dp1987
g67
(dp1988
sg76
g1974
sg69
(lp1989
g62
(g63
g64
NtRp1990
(dp1991
g67
(dp1992
g75
I3
ssg76
g1986
sg69
(lp1993
S''
asbasbasbag62
(g78
g64
NtRp1994
(dp1995
g67
(dp1996
sg76
g1950
sg69
(lp1997
g62
(g83
g64
NtRp1998
(dp1999
g67
(dp2000
g87
g88
ssg76
g1994
sg69
(lp2001
g331
asbag62
(g83
g64
NtRp2002
(dp2003
g67
(dp2004
g94
g95
ssg76
g1994
sg69
(lp2005
S':'
asbag62
(g83
g64
NtRp2006
(dp2007
g67
(dp2008
sg76
g1994
sg69
(lp2009
g62
(g63
g64
NtRp2010
(dp2011
g67
(dp2012
g75
I3
ssg76
g2006
sg69
(lp2013
S''
asbasbasbag62
(g78
g64
NtRp2014
(dp2015
g67
(dp2016
sg76
g1950
sg69
(lp2017
g62
(g83
g64
NtRp2018
(dp2019
g67
(dp2020
g87
g88
ssg76
g2014
sg69
(lp2021
g352
asbag62
(g83
g64
NtRp2022
(dp2023
g67
(dp2024
g94
g95
ssg76
g2014
sg69
(lp2025
S':'
asbag62
(g83
g64
NtRp2026
(dp2027
g67
(dp2028
sg76
g2014
sg69
(lp2029
g62
(g63
g64
NtRp2030
(dp2031
g67
(dp2032
g75
I3
ssg76
g2026
sg69
(lp2033
S''
asbasbasbag62
(g78
g64
NtRp2034
(dp2035
g67
(dp2036
sg76
g1950
sg69
(lp2037
g62
(g83
g64
NtRp2038
(dp2039
g67
(dp2040
g87
g88
ssg76
g2034
sg69
(lp2041
g373
asbag62
(g83
g64
NtRp2042
(dp2043
g67
(dp2044
g94
g95
ssg76
g2034
sg69
(lp2045
S':'
asbag62
(g83
g64
NtRp2046
(dp2047
g67
(dp2048
sg76
g2034
sg69
(lp2049
g62
(g63
g64
NtRp2050
(dp2051
g67
(dp2052
g75
I3
ssg76
g2046
sg69
(lp2053
S''
asbasbasbag62
(g78
g64
NtRp2054
(dp2055
g67
(dp2056
sg76
g1950
sg69
(lp2057
g62
(g83
g64
NtRp2058
(dp2059
g67
(dp2060
g87
g88
ssg76
g2054
sg69
(lp2061
g394
asbag62
(g83
g64
NtRp2062
(dp2063
g67
(dp2064
g94
g95
ssg76
g2054
sg69
(lp2065
S':'
asbag62
(g83
g64
NtRp2066
(dp2067
g67
(dp2068
sg76
g2054
sg69
(lp2069
g62
(g63
g64
NtRp2070
(dp2071
g67
(dp2072
g75
I3
ssg76
g2066
sg69
(lp2073
S''
asbasbasbag62
(g78
g64
NtRp2074
(dp2075
g67
(dp2076
sg76
g1950
sg69
(lp2077
g62
(g83
g64
NtRp2078
(dp2079
g67
(dp2080
g87
g88
ssg76
g2074
sg69
(lp2081
g415
asbag62
(g83
g64
NtRp2082
(dp2083
g67
(dp2084
g94
g95
ssg76
g2074
sg69
(lp2085
S':'
asbag62
(g83
g64
NtRp2086
(dp2087
g67
(dp2088
sg76
g2074
sg69
(lp2089
g62
(g63
g64
NtRp2090
(dp2091
g67
(dp2092
g75
I3
ssg76
g2086
sg69
(lp2093
S''
asbasbasbag62
(g78
g64
NtRp2094
(dp2095
g67
(dp2096
sg76
g1950
sg69
(lp2097
g62
(g83
g64
NtRp2098
(dp2099
g67
(dp2100
g87
g88
ssg76
g2094
sg69
(lp2101
g436
asbag62
(g83
g64
NtRp2102
(dp2103
g67
(dp2104
g94
g95
ssg76
g2094
sg69
(lp2105
S':'
asbag62
(g83
g64
NtRp2106
(dp2107
g67
(dp2108
sg76
g2094
sg69
(lp2109
g62
(g63
g64
NtRp2110
(dp2111
g67
(dp2112
g75
I3
ssg76
g2106
sg69
(lp2113
S''
asbasbasbasbasbasbasbag62
(g78
g64
NtRp2114
(dp2115
g67
(dp2116
sg76
g252
sg69
(lp2117
g62
(g83
g64
NtRp2118
(dp2119
g67
(dp2120
g87
g88
ssg76
g2114
sg69
(lp2121
S'session_id_site'
p2122
asbag62
(g83
g64
NtRp2123
(dp2124
g67
(dp2125
g94
g95
ssg76
g2114
sg69
(lp2126
S':'
asbag62
(g83
g64
NtRp2127
(dp2128
g67
(dp2129
sg76
g2114
sg69
(lp2130
g62
(g63
g64
NtRp2131
(dp2132
g67
(dp2133
g75
I4
ssg76
g2127
sg69
(lp2134
g62
(g71
g64
NtRp2135
(dp2136
g67
(dp2137
g75
I3
ssg76
Nsg69
(lp2138
g62
(g78
g64
NtRp2139
(dp2140
g67
(dp2141
sg76
g2135
sg69
(lp2142
g62
(g83
g64
NtRp2143
(dp2144
g67
(dp2145
g87
g88
ssg76
g2139
sg69
(lp2146
g289
asbag62
(g83
g64
NtRp2147
(dp2148
g67
(dp2149
g94
g95
ssg76
g2139
sg69
(lp2150
S':'
asbag62
(g83
g64
NtRp2151
(dp2152
g67
(dp2153
sg76
g2139
sg69
(lp2154
g62
(g63
g64
NtRp2155
(dp2156
g67
(dp2157
g75
I3
ssg76
g2151
sg69
(lp2158
S''
asbasbasbag62
(g78
g64
NtRp2159
(dp2160
g67
(dp2161
sg76
g2135
sg69
(lp2162
g62
(g83
g64
NtRp2163
(dp2164
g67
(dp2165
g87
g88
ssg76
g2159
sg69
(lp2166
g310
asbag62
(g83
g64
NtRp2167
(dp2168
g67
(dp2169
g94
g95
ssg76
g2159
sg69
(lp2170
S':'
asbag62
(g83
g64
NtRp2171
(dp2172
g67
(dp2173
sg76
g2159
sg69
(lp2174
g62
(g63
g64
NtRp2175
(dp2176
g67
(dp2177
g75
I3
ssg76
g2171
sg69
(lp2178
S''
asbasbasbag62
(g78
g64
NtRp2179
(dp2180
g67
(dp2181
sg76
g2135
sg69
(lp2182
g62
(g83
g64
NtRp2183
(dp2184
g67
(dp2185
g87
g88
ssg76
g2179
sg69
(lp2186
g331
asbag62
(g83
g64
NtRp2187
(dp2188
g67
(dp2189
g94
g95
ssg76
g2179
sg69
(lp2190
S':'
asbag62
(g83
g64
NtRp2191
(dp2192
g67
(dp2193
sg76
g2179
sg69
(lp2194
g62
(g63
g64
NtRp2195
(dp2196
g67
(dp2197
g75
I3
ssg76
g2191
sg69
(lp2198
S''
asbasbasbag62
(g78
g64
NtRp2199
(dp2200
g67
(dp2201
sg76
g2135
sg69
(lp2202
g62
(g83
g64
NtRp2203
(dp2204
g67
(dp2205
g87
g88
ssg76
g2199
sg69
(lp2206
g352
asbag62
(g83
g64
NtRp2207
(dp2208
g67
(dp2209
g94
g95
ssg76
g2199
sg69
(lp2210
S':'
asbag62
(g83
g64
NtRp2211
(dp2212
g67
(dp2213
sg76
g2199
sg69
(lp2214
g62
(g63
g64
NtRp2215
(dp2216
g67
(dp2217
g75
I3
ssg76
g2211
sg69
(lp2218
S''
asbasbasbag62
(g78
g64
NtRp2219
(dp2220
g67
(dp2221
sg76
g2135
sg69
(lp2222
g62
(g83
g64
NtRp2223
(dp2224
g67
(dp2225
g87
g88
ssg76
g2219
sg69
(lp2226
g373
asbag62
(g83
g64
NtRp2227
(dp2228
g67
(dp2229
g94
g95
ssg76
g2219
sg69
(lp2230
S':'
asbag62
(g83
g64
NtRp2231
(dp2232
g67
(dp2233
sg76
g2219
sg69
(lp2234
g62
(g63
g64
NtRp2235
(dp2236
g67
(dp2237
g75
I3
ssg76
g2231
sg69
(lp2238
S''
asbasbasbag62
(g78
g64
NtRp2239
(dp2240
g67
(dp2241
sg76
g2135
sg69
(lp2242
g62
(g83
g64
NtRp2243
(dp2244
g67
(dp2245
g87
g88
ssg76
g2239
sg69
(lp2246
g394
asbag62
(g83
g64
NtRp2247
(dp2248
g67
(dp2249
g94
g95
ssg76
g2239
sg69
(lp2250
S':'
asbag62
(g83
g64
NtRp2251
(dp2252
g67
(dp2253
sg76
g2239
sg69
(lp2254
g62
(g63
g64
NtRp2255
(dp2256
g67
(dp2257
g75
I3
ssg76
g2251
sg69
(lp2258
S''
asbasbasbag62
(g78
g64
NtRp2259
(dp2260
g67
(dp2261
sg76
g2135
sg69
(lp2262
g62
(g83
g64
NtRp2263
(dp2264
g67
(dp2265
g87
g88
ssg76
g2259
sg69
(lp2266
g415
asbag62
(g83
g64
NtRp2267
(dp2268
g67
(dp2269
g94
g95
ssg76
g2259
sg69
(lp2270
S':'
asbag62
(g83
g64
NtRp2271
(dp2272
g67
(dp2273
sg76
g2259
sg69
(lp2274
g62
(g63
g64
NtRp2275
(dp2276
g67
(dp2277
g75
I3
ssg76
g2271
sg69
(lp2278
S''
asbasbasbag62
(g78
g64
NtRp2279
(dp2280
g67
(dp2281
sg76
g2135
sg69
(lp2282
g62
(g83
g64
NtRp2283
(dp2284
g67
(dp2285
g87
g88
ssg76
g2279
sg69
(lp2286
g436
asbag62
(g83
g64
NtRp2287
(dp2288
g67
(dp2289
g94
g95
ssg76
g2279
sg69
(lp2290
S':'
asbag62
(g83
g64
NtRp2291
(dp2292
g67
(dp2293
sg76
g2279
sg69
(lp2294
g62
(g63
g64
NtRp2295
(dp2296
g67
(dp2297
g75
I3
ssg76
g2291
sg69
(lp2298
S''
asbasbasbasbasbasbasbasbasbasbasbag62
(g78
g64
NtRp2299
(dp2300
g67
(dp2301
sg76
g72
sg69
(lp2302
g62
(g83
g64
NtRp2303
(dp2304
g67
(dp2305
g87
g88
ssg76
g2299
sg69
(lp2306
S'env'
p2307
asbag62
(g83
g64
NtRp2308
(dp2309
g67
(dp2310
g94
g95
ssg76
g2299
sg69
(lp2311
S':'
asbag62
(g83
g64
NtRp2312
(dp2313
g67
(dp2314
sg76
g2299
sg69
(lp2315
g62
(g63
g64
NtRp2316
(dp2317
g67
(dp2318
g75
I5
ssg76
g2312
sg69
(lp2319
g62
(g71
g64
NtRp2320
(dp2321
g67
(dp2322
g75
I4
ssg76
Nsg69
(lp2323
g62
(g78
g64
NtRp2324
(dp2325
g67
(dp2326
sg76
g2320
sg69
(lp2327
g62
(g83
g64
NtRp2328
(dp2329
g67
(dp2330
g87
g88
ssg76
g2324
sg69
(lp2331
S'app_folders'
p2332
asbag62
(g83
g64
NtRp2333
(dp2334
g67
(dp2335
g94
g95
ssg76
g2324
sg69
(lp2336
S':'
asbag62
(g83
g64
NtRp2337
(dp2338
g67
(dp2339
sg76
g2324
sg69
(lp2340
g62
(g63
g64
NtRp2341
(dp2342
g67
(dp2343
g75
I4
ssg76
g2337
sg69
(lp2344
S"set(['/home/nekro/Devel/myprojects/web2py/base/applications/panel/', '/home/nekro/Devel/myprojects/web2py/base/applications/admin/', '/home/nekro/Devel/myprojects/web2py/base/applications/front/'])"
p2345
asbasbasbag62
(g78
g64
NtRp2346
(dp2347
g67
(dp2348
sg76
g2320
sg69
(lp2349
g62
(g83
g64
NtRp2350
(dp2351
g67
(dp2352
g87
g88
ssg76
g2346
sg69
(lp2353
S'applications_parent'
p2354
asbag62
(g83
g64
NtRp2355
(dp2356
g67
(dp2357
g94
g95
ssg76
g2346
sg69
(lp2358
S':'
asbag62
(g83
g64
NtRp2359
(dp2360
g67
(dp2361
sg76
g2346
sg69
(lp2362
g62
(g63
g64
NtRp2363
(dp2364
g67
(dp2365
g75
I4
ssg76
g2359
sg69
(lp2366
S'/home/nekro/Devel/myprojects/web2py/base'
p2367
asbasbasbag62
(g78
g64
NtRp2368
(dp2369
g67
(dp2370
sg76
g2320
sg69
(lp2371
g62
(g83
g64
NtRp2372
(dp2373
g67
(dp2374
g87
g88
ssg76
g2368
sg69
(lp2375
S'cmd_args'
p2376
asbag62
(g83
g64
NtRp2377
(dp2378
g67
(dp2379
g94
g95
ssg76
g2368
sg69
(lp2380
S':'
asbag62
(g83
g64
NtRp2381
(dp2382
g67
(dp2383
sg76
g2368
sg69
(lp2384
g62
(g63
g64
NtRp2385
(dp2386
g67
(dp2387
g75
I4
ssg76
g2381
sg69
(lp2388
g62
(g71
g64
NtRp2389
(dp2390
g67
(dp2391
g75
I3
ssg76
Nsg69
(lp2392
sbasbasbasbag62
(g78
g64
NtRp2393
(dp2394
g67
(dp2395
sg76
g2320
sg69
(lp2396
g62
(g83
g64
NtRp2397
(dp2398
g67
(dp2399
g87
g88
ssg76
g2393
sg69
(lp2400
S'cmd_options'
p2401
asbag62
(g83
g64
NtRp2402
(dp2403
g67
(dp2404
g94
g95
ssg76
g2393
sg69
(lp2405
S':'
asbag62
(g83
g64
NtRp2406
(dp2407
g67
(dp2408
sg76
g2393
sg69
(lp2409
g62
(g63
g64
NtRp2410
(dp2411
g67
(dp2412
g75
I4
ssg76
g2406
sg69
(lp2413
S"<Values at 0x8475ecc: {'verbose': False, 'ip': '127.0.0.1', 'shutdown_timeout': 5, 'taskbar': False, 'port': 8000, 'maxthreads': None, 'softcron': False, 'server_name': 'tardis', 'bpython': False, 'nogui': False, 'nocron': False, 'extcron': False, 'debuglevel': 30, 'test': None, 'folder': '/home/nekro/Devel/myprojects/web2py/base', 'config': '', 'import_models': False, 'winservice': '', 'shell': None, 'run': '', 'log_filename': 'httpserver.log', 'args': [''], 'profiler_filename': None, 'ssl_private_key': '', 'password': '<recycle>', 'request_queue_size': 5, 'ssl_certificate': '', 'cronjob': False, 'plain': False, 'quiet': False, 'interfaces': None, 'minthreads': None, 'timeout': 10, 'numthreads': None, 'pid_filename': 'httpserver.pid'}>"
p2414
asbasbasbag62
(g78
g64
NtRp2415
(dp2416
g67
(dp2417
sg76
g2320
sg69
(lp2418
g62
(g83
g64
NtRp2419
(dp2420
g67
(dp2421
g87
g88
ssg76
g2415
sg69
(lp2422
S'db_sessions'
p2423
asbag62
(g83
g64
NtRp2424
(dp2425
g67
(dp2426
g94
g95
ssg76
g2415
sg69
(lp2427
S':'
asbag62
(g83
g64
NtRp2428
(dp2429
g67
(dp2430
sg76
g2415
sg69
(lp2431
g62
(g63
g64
NtRp2432
(dp2433
g67
(dp2434
g75
I4
ssg76
g2428
sg69
(lp2435
S'set([])'
p2436
asbasbasbag62
(g78
g64
NtRp2437
(dp2438
g67
(dp2439
sg76
g2320
sg69
(lp2440
g62
(g83
g64
NtRp2441
(dp2442
g67
(dp2443
g87
g88
ssg76
g2437
sg69
(lp2444
S'debugging'
p2445
asbag62
(g83
g64
NtRp2446
(dp2447
g67
(dp2448
g94
g95
ssg76
g2437
sg69
(lp2449
S':'
asbag62
(g83
g64
NtRp2450
(dp2451
g67
(dp2452
sg76
g2437
sg69
(lp2453
g62
(g63
g64
NtRp2454
(dp2455
g67
(dp2456
g75
I4
ssg76
g2450
sg69
(lp2457
g105
asbasbasbag62
(g78
g64
NtRp2458
(dp2459
g67
(dp2460
sg76
g2320
sg69
(lp2461
g62
(g83
g64
NtRp2462
(dp2463
g67
(dp2464
g87
g88
ssg76
g2458
sg69
(lp2465
S'gluon_parent'
p2466
asbag62
(g83
g64
NtRp2467
(dp2468
g67
(dp2469
g94
g95
ssg76
g2458
sg69
(lp2470
S':'
asbag62
(g83
g64
NtRp2471
(dp2472
g67
(dp2473
sg76
g2458
sg69
(lp2474
g62
(g63
g64
NtRp2475
(dp2476
g67
(dp2477
g75
I4
ssg76
g2471
sg69
(lp2478
S'/home/nekro/Devel/myprojects/web2py/base'
p2479
asbasbasbag62
(g78
g64
NtRp2480
(dp2481
g67
(dp2482
sg76
g2320
sg69
(lp2483
g62
(g83
g64
NtRp2484
(dp2485
g67
(dp2486
g87
g88
ssg76
g2480
sg69
(lp2487
S'http_accept'
p2488
asbag62
(g83
g64
NtRp2489
(dp2490
g67
(dp2491
g94
g95
ssg76
g2480
sg69
(lp2492
S':'
asbag62
(g83
g64
NtRp2493
(dp2494
g67
(dp2495
sg76
g2480
sg69
(lp2496
g62
(g63
g64
NtRp2497
(dp2498
g67
(dp2499
g75
I4
ssg76
g2493
sg69
(lp2500
S'application/xml,application/xhtml+xml,text/html;q=0.9,text/plain;q=0.8,image/png,*/*;q=0.5'
p2501
asbasbasbag62
(g78
g64
NtRp2502
(dp2503
g67
(dp2504
sg76
g2320
sg69
(lp2505
g62
(g83
g64
NtRp2506
(dp2507
g67
(dp2508
g87
g88
ssg76
g2502
sg69
(lp2509
S'http_accept_charset'
p2510
asbag62
(g83
g64
NtRp2511
(dp2512
g67
(dp2513
g94
g95
ssg76
g2502
sg69
(lp2514
S':'
asbag62
(g83
g64
NtRp2515
(dp2516
g67
(dp2517
sg76
g2502
sg69
(lp2518
g62
(g63
g64
NtRp2519
(dp2520
g67
(dp2521
g75
I4
ssg76
g2515
sg69
(lp2522
S'ISO-8859-1,utf-8;q=0.7,*;q=0.3'
p2523
asbasbasbag62
(g78
g64
NtRp2524
(dp2525
g67
(dp2526
sg76
g2320
sg69
(lp2527
g62
(g83
g64
NtRp2528
(dp2529
g67
(dp2530
g87
g88
ssg76
g2524
sg69
(lp2531
S'http_accept_encoding'
p2532
asbag62
(g83
g64
NtRp2533
(dp2534
g67
(dp2535
g94
g95
ssg76
g2524
sg69
(lp2536
S':'
asbag62
(g83
g64
NtRp2537
(dp2538
g67
(dp2539
sg76
g2524
sg69
(lp2540
g62
(g63
g64
NtRp2541
(dp2542
g67
(dp2543
g75
I4
ssg76
g2537
sg69
(lp2544
S'gzip,deflate,sdch'
p2545
asbasbasbag62
(g78
g64
NtRp2546
(dp2547
g67
(dp2548
sg76
g2320
sg69
(lp2549
g62
(g83
g64
NtRp2550
(dp2551
g67
(dp2552
g87
g88
ssg76
g2546
sg69
(lp2553
S'http_accept_language'
p2554
asbag62
(g83
g64
NtRp2555
(dp2556
g67
(dp2557
g94
g95
ssg76
g2546
sg69
(lp2558
S':'
asbag62
(g83
g64
NtRp2559
(dp2560
g67
(dp2561
sg76
g2546
sg69
(lp2562
g62
(g63
g64
NtRp2563
(dp2564
g67
(dp2565
g75
I4
ssg76
g2559
sg69
(lp2566
S'es-419,es;q=0.8'
p2567
asbasbasbag62
(g78
g64
NtRp2568
(dp2569
g67
(dp2570
sg76
g2320
sg69
(lp2571
g62
(g83
g64
NtRp2572
(dp2573
g67
(dp2574
g87
g88
ssg76
g2568
sg69
(lp2575
S'http_connection'
p2576
asbag62
(g83
g64
NtRp2577
(dp2578
g67
(dp2579
g94
g95
ssg76
g2568
sg69
(lp2580
S':'
asbag62
(g83
g64
NtRp2581
(dp2582
g67
(dp2583
sg76
g2568
sg69
(lp2584
g62
(g63
g64
NtRp2585
(dp2586
g67
(dp2587
g75
I4
ssg76
g2581
sg69
(lp2588
S'keep-alive'
p2589
asbasbasbag62
(g78
g64
NtRp2590
(dp2591
g67
(dp2592
sg76
g2320
sg69
(lp2593
g62
(g83
g64
NtRp2594
(dp2595
g67
(dp2596
g87
g88
ssg76
g2590
sg69
(lp2597
S'http_cookie'
p2598
asbag62
(g83
g64
NtRp2599
(dp2600
g67
(dp2601
g94
g95
ssg76
g2590
sg69
(lp2602
S':'
asbag62
(g83
g64
NtRp2603
(dp2604
g67
(dp2605
sg76
g2590
sg69
(lp2606
g62
(g63
g64
NtRp2607
(dp2608
g67
(dp2609
g75
I4
ssg76
g2603
sg69
(lp2610
S'csrftoken=a1d2fa0a8f35075c27ec8ffb39a5a11a; 2bx85-qg1pj7t5s5_r=0; 2bx85-qg1pj7t5s5_s=130243513; 2bx85-qg1pj7t5s5_i=3; 2bx85-qg1pj7t5s5_vt=1307162044280; session_id_base=127.0.0.1-c2eadfab-a547-4edb-a93d-5bad7f9d3c04; session_id_intranet=127.0.0.1-529154bc-9a95-4a8a-8baa-ce3fefd4beb4; session_id_site=127.0.0.1-19828106-5c7d-4479-8161-cf33312ca6a7; session_id_front=127.0.0.1-24cf7f7d-130f-48e9-9cbf-edb4e4110675; session_id_panel=127.0.0.1-e1a0282f-7ae4-4414-aa6f-3ad6be66a301; session_id_admin=127.0.0.1-f0480463-6ae5-4636-80aa-a4e04aa98bb5'
p2611
asbasbasbag62
(g78
g64
NtRp2612
(dp2613
g67
(dp2614
sg76
g2320
sg69
(lp2615
g62
(g83
g64
NtRp2616
(dp2617
g67
(dp2618
g87
g88
ssg76
g2612
sg69
(lp2619
S'http_host'
p2620
asbag62
(g83
g64
NtRp2621
(dp2622
g67
(dp2623
g94
g95
ssg76
g2612
sg69
(lp2624
S':'
asbag62
(g83
g64
NtRp2625
(dp2626
g67
(dp2627
sg76
g2612
sg69
(lp2628
g62
(g63
g64
NtRp2629
(dp2630
g67
(dp2631
g75
I4
ssg76
g2625
sg69
(lp2632
S'127.0.0.1:8000'
p2633
asbasbasbag62
(g78
g64
NtRp2634
(dp2635
g67
(dp2636
sg76
g2320
sg69
(lp2637
g62
(g83
g64
NtRp2638
(dp2639
g67
(dp2640
g87
g88
ssg76
g2634
sg69
(lp2641
S'http_referer'
p2642
asbag62
(g83
g64
NtRp2643
(dp2644
g67
(dp2645
g94
g95
ssg76
g2634
sg69
(lp2646
S':'
asbag62
(g83
g64
NtRp2647
(dp2648
g67
(dp2649
sg76
g2634
sg69
(lp2650
g62
(g63
g64
NtRp2651
(dp2652
g67
(dp2653
g75
I4
ssg76
g2647
sg69
(lp2654
S'http://127.0.0.1:8000/admin/default/site'
p2655
asbasbasbag62
(g78
g64
NtRp2656
(dp2657
g67
(dp2658
sg76
g2320
sg69
(lp2659
g62
(g83
g64
NtRp2660
(dp2661
g67
(dp2662
g87
g88
ssg76
g2656
sg69
(lp2663
S'http_user_agent'
p2664
asbag62
(g83
g64
NtRp2665
(dp2666
g67
(dp2667
g94
g95
ssg76
g2656
sg69
(lp2668
S':'
asbag62
(g83
g64
NtRp2669
(dp2670
g67
(dp2671
sg76
g2656
sg69
(lp2672
g62
(g63
g64
NtRp2673
(dp2674
g67
(dp2675
g75
I4
ssg76
g2669
sg69
(lp2676
S'Mozilla/5.0 (X11; Linux i686) AppleWebKit/534.24 (KHTML, like Gecko) Chrome/11.0.696.68 Safari/534.24'
p2677
asbasbasbag62
(g78
g64
NtRp2678
(dp2679
g67
(dp2680
sg76
g2320
sg69
(lp2681
g62
(g83
g64
NtRp2682
(dp2683
g67
(dp2684
g87
g88
ssg76
g2678
sg69
(lp2685
S'path_info'
p2686
asbag62
(g83
g64
NtRp2687
(dp2688
g67
(dp2689
g94
g95
ssg76
g2678
sg69
(lp2690
S':'
asbag62
(g83
g64
NtRp2691
(dp2692
g67
(dp2693
sg76
g2678
sg69
(lp2694
g62
(g63
g64
NtRp2695
(dp2696
g67
(dp2697
g75
I4
ssg76
g2691
sg69
(lp2698
S'/admin/default/design/2p_fl'
p2699
asbasbasbag62
(g78
g64
NtRp2700
(dp2701
g67
(dp2702
sg76
g2320
sg69
(lp2703
g62
(g83
g64
NtRp2704
(dp2705
g67
(dp2706
g87
g88
ssg76
g2700
sg69
(lp2707
S'query_string'
p2708
asbag62
(g83
g64
NtRp2709
(dp2710
g67
(dp2711
g94
g95
ssg76
g2700
sg69
(lp2712
S':'
asbag62
(g83
g64
NtRp2713
(dp2714
g67
(dp2715
sg76
g2700
sg69
(lp2716
g62
(g63
g64
NtRp2717
(dp2718
g67
(dp2719
g75
I4
ssg76
g2713
sg69
(lp2720
S''
asbasbasbag62
(g78
g64
NtRp2721
(dp2722
g67
(dp2723
sg76
g2320
sg69
(lp2724
g62
(g83
g64
NtRp2725
(dp2726
g67
(dp2727
g87
g88
ssg76
g2721
sg69
(lp2728
S'remote_addr'
p2729
asbag62
(g83
g64
NtRp2730
(dp2731
g67
(dp2732
g94
g95
ssg76
g2721
sg69
(lp2733
S':'
asbag62
(g83
g64
NtRp2734
(dp2735
g67
(dp2736
sg76
g2721
sg69
(lp2737
g62
(g63
g64
NtRp2738
(dp2739
g67
(dp2740
g75
I4
ssg76
g2734
sg69
(lp2741
g208
asbasbasbag62
(g78
g64
NtRp2742
(dp2743
g67
(dp2744
sg76
g2320
sg69
(lp2745
g62
(g83
g64
NtRp2746
(dp2747
g67
(dp2748
g87
g88
ssg76
g2742
sg69
(lp2749
S'remote_port'
p2750
asbag62
(g83
g64
NtRp2751
(dp2752
g67
(dp2753
g94
g95
ssg76
g2742
sg69
(lp2754
S':'
asbag62
(g83
g64
NtRp2755
(dp2756
g67
(dp2757
sg76
g2742
sg69
(lp2758
g62
(g63
g64
NtRp2759
(dp2760
g67
(dp2761
g75
I4
ssg76
g2755
sg69
(lp2762
S'47615'
p2763
asbasbasbag62
(g78
g64
NtRp2764
(dp2765
g67
(dp2766
sg76
g2320
sg69
(lp2767
g62
(g83
g64
NtRp2768
(dp2769
g67
(dp2770
g87
g88
ssg76
g2764
sg69
(lp2771
S'request_method'
p2772
asbag62
(g83
g64
NtRp2773
(dp2774
g67
(dp2775
g94
g95
ssg76
g2764
sg69
(lp2776
S':'
asbag62
(g83
g64
NtRp2777
(dp2778
g67
(dp2779
sg76
g2764
sg69
(lp2780
g62
(g63
g64
NtRp2781
(dp2782
g67
(dp2783
g75
I4
ssg76
g2777
sg69
(lp2784
S'GET'
p2785
asbasbasbag62
(g78
g64
NtRp2786
(dp2787
g67
(dp2788
sg76
g2320
sg69
(lp2789
g62
(g83
g64
NtRp2790
(dp2791
g67
(dp2792
g87
g88
ssg76
g2786
sg69
(lp2793
S'request_uri'
p2794
asbag62
(g83
g64
NtRp2795
(dp2796
g67
(dp2797
g94
g95
ssg76
g2786
sg69
(lp2798
S':'
asbag62
(g83
g64
NtRp2799
(dp2800
g67
(dp2801
sg76
g2786
sg69
(lp2802
g62
(g63
g64
NtRp2803
(dp2804
g67
(dp2805
g75
I4
ssg76
g2799
sg69
(lp2806
g2699
asbasbasbag62
(g78
g64
NtRp2807
(dp2808
g67
(dp2809
sg76
g2320
sg69
(lp2810
g62
(g83
g64
NtRp2811
(dp2812
g67
(dp2813
g87
g88
ssg76
g2807
sg69
(lp2814
S'script_name'
p2815
asbag62
(g83
g64
NtRp2816
(dp2817
g67
(dp2818
g94
g95
ssg76
g2807
sg69
(lp2819
S':'
asbag62
(g83
g64
NtRp2820
(dp2821
g67
(dp2822
sg76
g2807
sg69
(lp2823
g62
(g63
g64
NtRp2824
(dp2825
g67
(dp2826
g75
I4
ssg76
g2820
sg69
(lp2827
S''
asbasbasbag62
(g78
g64
NtRp2828
(dp2829
g67
(dp2830
sg76
g2320
sg69
(lp2831
g62
(g83
g64
NtRp2832
(dp2833
g67
(dp2834
g87
g88
ssg76
g2828
sg69
(lp2835
S'server_name'
p2836
asbag62
(g83
g64
NtRp2837
(dp2838
g67
(dp2839
g94
g95
ssg76
g2828
sg69
(lp2840
S':'
asbag62
(g83
g64
NtRp2841
(dp2842
g67
(dp2843
sg76
g2828
sg69
(lp2844
g62
(g63
g64
NtRp2845
(dp2846
g67
(dp2847
g75
I4
ssg76
g2841
sg69
(lp2848
S'tardis'
p2849
asbasbasbag62
(g78
g64
NtRp2850
(dp2851
g67
(dp2852
sg76
g2320
sg69
(lp2853
g62
(g83
g64
NtRp2854
(dp2855
g67
(dp2856
g87
g88
ssg76
g2850
sg69
(lp2857
S'server_port'
p2858
asbag62
(g83
g64
NtRp2859
(dp2860
g67
(dp2861
g94
g95
ssg76
g2850
sg69
(lp2862
S':'
asbag62
(g83
g64
NtRp2863
(dp2864
g67
(dp2865
sg76
g2850
sg69
(lp2866
g62
(g63
g64
NtRp2867
(dp2868
g67
(dp2869
g75
I4
ssg76
g2863
sg69
(lp2870
S'8000'
p2871
asbasbasbag62
(g78
g64
NtRp2872
(dp2873
g67
(dp2874
sg76
g2320
sg69
(lp2875
g62
(g83
g64
NtRp2876
(dp2877
g67
(dp2878
g87
g88
ssg76
g2872
sg69
(lp2879
S'server_protocol'
p2880
asbag62
(g83
g64
NtRp2881
(dp2882
g67
(dp2883
g94
g95
ssg76
g2872
sg69
(lp2884
S':'
asbag62
(g83
g64
NtRp2885
(dp2886
g67
(dp2887
sg76
g2872
sg69
(lp2888
g62
(g63
g64
NtRp2889
(dp2890
g67
(dp2891
g75
I4
ssg76
g2885
sg69
(lp2892
S'HTTP/1.1'
p2893
asbasbasbag62
(g78
g64
NtRp2894
(dp2895
g67
(dp2896
sg76
g2320
sg69
(lp2897
g62
(g83
g64
NtRp2898
(dp2899
g67
(dp2900
g87
g88
ssg76
g2894
sg69
(lp2901
S'server_software'
p2902
asbag62
(g83
g64
NtRp2903
(dp2904
g67
(dp2905
g94
g95
ssg76
g2894
sg69
(lp2906
S':'
asbag62
(g83
g64
NtRp2907
(dp2908
g67
(dp2909
sg76
g2894
sg69
(lp2910
g62
(g63
g64
NtRp2911
(dp2912
g67
(dp2913
g75
I4
ssg76
g2907
sg69
(lp2914
S'Rocket 1.2.2'
p2915
asbasbasbag62
(g78
g64
NtRp2916
(dp2917
g67
(dp2918
sg76
g2320
sg69
(lp2919
g62
(g83
g64
NtRp2920
(dp2921
g67
(dp2922
g87
g88
ssg76
g2916
sg69
(lp2923
S'web2py_crontype'
p2924
asbag62
(g83
g64
NtRp2925
(dp2926
g67
(dp2927
g94
g95
ssg76
g2916
sg69
(lp2928
S':'
asbag62
(g83
g64
NtRp2929
(dp2930
g67
(dp2931
sg76
g2916
sg69
(lp2932
g62
(g63
g64
NtRp2933
(dp2934
g67
(dp2935
g75
I4
ssg76
g2929
sg69
(lp2936
S'hard'
p2937
asbasbasbag62
(g78
g64
NtRp2938
(dp2939
g67
(dp2940
sg76
g2320
sg69
(lp2941
g62
(g83
g64
NtRp2942
(dp2943
g67
(dp2944
g87
g88
ssg76
g2938
sg69
(lp2945
S'web2py_original_uri'
p2946
asbag62
(g83
g64
NtRp2947
(dp2948
g67
(dp2949
g94
g95
ssg76
g2938
sg69
(lp2950
S':'
asbag62
(g83
g64
NtRp2951
(dp2952
g67
(dp2953
sg76
g2938
sg69
(lp2954
g62
(g63
g64
NtRp2955
(dp2956
g67
(dp2957
g75
I4
ssg76
g2951
sg69
(lp2958
g2699
asbasbasbag62
(g78
g64
NtRp2959
(dp2960
g67
(dp2961
sg76
g2320
sg69
(lp2962
g62
(g83
g64
NtRp2963
(dp2964
g67
(dp2965
g87
g88
ssg76
g2959
sg69
(lp2966
S'web2py_path'
p2967
asbag62
(g83
g64
NtRp2968
(dp2969
g67
(dp2970
g94
g95
ssg76
g2959
sg69
(lp2971
S':'
asbag62
(g83
g64
NtRp2972
(dp2973
g67
(dp2974
sg76
g2959
sg69
(lp2975
g62
(g63
g64
NtRp2976
(dp2977
g67
(dp2978
g75
I4
ssg76
g2972
sg69
(lp2979
g2367
asbasbasbag62
(g78
g64
NtRp2980
(dp2981
g67
(dp2982
sg76
g2320
sg69
(lp2983
g62
(g83
g64
NtRp2984
(dp2985
g67
(dp2986
g87
g88
ssg76
g2980
sg69
(lp2987
S'web2py_version'
p2988
asbag62
(g83
g64
NtRp2989
(dp2990
g67
(dp2991
g94
g95
ssg76
g2980
sg69
(lp2992
S':'
asbag62
(g83
g64
NtRp2993
(dp2994
g67
(dp2995
sg76
g2980
sg69
(lp2996
g62
(g63
g64
NtRp2997
(dp2998
g67
(dp2999
g75
I4
ssg76
g2993
sg69
(lp3000
S'Version 1.95.1 (2011-04-25 08:57:54)\n'
p3001
asbasbasbag62
(g78
g64
NtRp3002
(dp3003
g67
(dp3004
sg76
g2320
sg69
(lp3005
g62
(g83
g64
NtRp3006
(dp3007
g67
(dp3008
g87
g88
ssg76
g3002
sg69
(lp3009
S'wsgi_errors'
p3010
asbag62
(g83
g64
NtRp3011
(dp3012
g67
(dp3013
g94
g95
ssg76
g3002
sg69
(lp3014
S':'
asbag62
(g83
g64
NtRp3015
(dp3016
g67
(dp3017
sg76
g3002
sg69
(lp3018
g62
(g63
g64
NtRp3019
(dp3020
g67
(dp3021
g75
I4
ssg76
g3015
sg69
(lp3022
S"<open file '<stderr>', mode 'w' at 0xb74800d0>"
p3023
asbasbasbag62
(g78
g64
NtRp3024
(dp3025
g67
(dp3026
sg76
g2320
sg69
(lp3027
g62
(g83
g64
NtRp3028
(dp3029
g67
(dp3030
g87
g88
ssg76
g3024
sg69
(lp3031
S'wsgi_file_wrapper'
p3032
asbag62
(g83
g64
NtRp3033
(dp3034
g67
(dp3035
g94
g95
ssg76
g3024
sg69
(lp3036
S':'
asbag62
(g83
g64
NtRp3037
(dp3038
g67
(dp3039
sg76
g3024
sg69
(lp3040
g62
(g63
g64
NtRp3041
(dp3042
g67
(dp3043
g75
I4
ssg76
g3037
sg69
(lp3044
S'<class gluon.rocket.FileWrapper at 0x844dbfc>'
p3045
asbasbasbag62
(g78
g64
NtRp3046
(dp3047
g67
(dp3048
sg76
g2320
sg69
(lp3049
g62
(g83
g64
NtRp3050
(dp3051
g67
(dp3052
g87
g88
ssg76
g3046
sg69
(lp3053
S'wsgi_input'
p3054
asbag62
(g83
g64
NtRp3055
(dp3056
g67
(dp3057
g94
g95
ssg76
g3046
sg69
(lp3058
S':'
asbag62
(g83
g64
NtRp3059
(dp3060
g67
(dp3061
sg76
g3046
sg69
(lp3062
g62
(g63
g64
NtRp3063
(dp3064
g67
(dp3065
g75
I4
ssg76
g3059
sg69
(lp3066
S'<socket._fileobject object at 0x8a0816c>'
p3067
asbasbasbag62
(g78
g64
NtRp3068
(dp3069
g67
(dp3070
sg76
g2320
sg69
(lp3071
g62
(g83
g64
NtRp3072
(dp3073
g67
(dp3074
g87
g88
ssg76
g3068
sg69
(lp3075
S'wsgi_multiprocess'
p3076
asbag62
(g83
g64
NtRp3077
(dp3078
g67
(dp3079
g94
g95
ssg76
g3068
sg69
(lp3080
S':'
asbag62
(g83
g64
NtRp3081
(dp3082
g67
(dp3083
sg76
g3068
sg69
(lp3084
g62
(g63
g64
NtRp3085
(dp3086
g67
(dp3087
g75
I4
ssg76
g3081
sg69
(lp3088
g105
asbasbasbag62
(g78
g64
NtRp3089
(dp3090
g67
(dp3091
sg76
g2320
sg69
(lp3092
g62
(g83
g64
NtRp3093
(dp3094
g67
(dp3095
g87
g88
ssg76
g3089
sg69
(lp3096
S'wsgi_multithread'
p3097
asbag62
(g83
g64
NtRp3098
(dp3099
g67
(dp3100
g94
g95
ssg76
g3089
sg69
(lp3101
S':'
asbag62
(g83
g64
NtRp3102
(dp3103
g67
(dp3104
sg76
g3089
sg69
(lp3105
g62
(g63
g64
NtRp3106
(dp3107
g67
(dp3108
g75
I4
ssg76
g3102
sg69
(lp3109
S'True'
p3110
asbasbasbag62
(g78
g64
NtRp3111
(dp3112
g67
(dp3113
sg76
g2320
sg69
(lp3114
g62
(g83
g64
NtRp3115
(dp3116
g67
(dp3117
g87
g88
ssg76
g3111
sg69
(lp3118
S'wsgi_run_once'
p3119
asbag62
(g83
g64
NtRp3120
(dp3121
g67
(dp3122
g94
g95
ssg76
g3111
sg69
(lp3123
S':'
asbag62
(g83
g64
NtRp3124
(dp3125
g67
(dp3126
sg76
g3111
sg69
(lp3127
g62
(g63
g64
NtRp3128
(dp3129
g67
(dp3130
g75
I4
ssg76
g3124
sg69
(lp3131
g105
asbasbasbag62
(g78
g64
NtRp3132
(dp3133
g67
(dp3134
sg76
g2320
sg69
(lp3135
g62
(g83
g64
NtRp3136
(dp3137
g67
(dp3138
g87
g88
ssg76
g3132
sg69
(lp3139
S'wsgi_url_scheme'
p3140
asbag62
(g83
g64
NtRp3141
(dp3142
g67
(dp3143
g94
g95
ssg76
g3132
sg69
(lp3144
S':'
asbag62
(g83
g64
NtRp3145
(dp3146
g67
(dp3147
sg76
g3132
sg69
(lp3148
g62
(g63
g64
NtRp3149
(dp3150
g67
(dp3151
g75
I4
ssg76
g3145
sg69
(lp3152
S'http'
p3153
asbasbasbag62
(g78
g64
NtRp3154
(dp3155
g67
(dp3156
sg76
g2320
sg69
(lp3157
g62
(g83
g64
NtRp3158
(dp3159
g67
(dp3160
g87
g88
ssg76
g3154
sg69
(lp3161
S'wsgi_version'
p3162
asbag62
(g83
g64
NtRp3163
(dp3164
g67
(dp3165
g94
g95
ssg76
g3154
sg69
(lp3166
S':'
asbag62
(g83
g64
NtRp3167
(dp3168
g67
(dp3169
sg76
g3154
sg69
(lp3170
g62
(g63
g64
NtRp3171
(dp3172
g67
(dp3173
g75
I4
ssg76
g3167
sg69
(lp3174
g62
(g71
g64
NtRp3175
(dp3176
g67
(dp3177
g75
I3
ssg76
Nsg69
(lp3178
g62
(g78
g64
NtRp3179
(dp3180
g67
(dp3181
sg76
g3175
sg69
(lp3182
g62
(g83
g64
NtRp3183
(dp3184
g67
(dp3185
sg76
g3179
sg69
(lp3186
g62
(g63
g64
NtRp3187
(dp3188
g67
(dp3189
g75
I3
ssg76
g3183
sg69
(lp3190
S'1'
asbasbasbag62
(g78
g64
NtRp3191
(dp3192
g67
(dp3193
sg76
g3175
sg69
(lp3194
g62
(g83
g64
NtRp3195
(dp3196
g67
(dp3197
sg76
g3191
sg69
(lp3198
g62
(g63
g64
NtRp3199
(dp3200
g67
(dp3201
g75
I3
ssg76
g3195
sg69
(lp3202
S'0'
asbasbasbasbasbasbasbasbasbasbasbag62
(g78
g64
NtRp3203
(dp3204
g67
(dp3205
sg76
g72
sg69
(lp3206
g62
(g83
g64
NtRp3207
(dp3208
g67
(dp3209
g87
g88
ssg76
g3203
sg69
(lp3210
S'extension'
p3211
asbag62
(g83
g64
NtRp3212
(dp3213
g67
(dp3214
g94
g95
ssg76
g3203
sg69
(lp3215
S':'
asbag62
(g83
g64
NtRp3216
(dp3217
g67
(dp3218
sg76
g3203
sg69
(lp3219
g62
(g63
g64
NtRp3220
(dp3221
g67
(dp3222
g75
I5
ssg76
g3216
sg69
(lp3223
S'html'
p3224
asbasbasbag62
(g78
g64
NtRp3225
(dp3226
g67
(dp3227
sg76
g72
sg69
(lp3228
g62
(g83
g64
NtRp3229
(dp3230
g67
(dp3231
g87
g88
ssg76
g3225
sg69
(lp3232
S'folder'
p3233
asbag62
(g83
g64
NtRp3234
(dp3235
g67
(dp3236
g94
g95
ssg76
g3225
sg69
(lp3237
S':'
asbag62
(g83
g64
NtRp3238
(dp3239
g67
(dp3240
sg76
g3225
sg69
(lp3241
g62
(g63
g64
NtRp3242
(dp3243
g67
(dp3244
g75
I5
ssg76
g3238
sg69
(lp3245
S'/home/nekro/Devel/myprojects/web2py/base/applications/admin/'
p3246
asbasbasbag62
(g78
g64
NtRp3247
(dp3248
g67
(dp3249
sg76
g72
sg69
(lp3250
g62
(g83
g64
NtRp3251
(dp3252
g67
(dp3253
g87
g88
ssg76
g3247
sg69
(lp3254
S'function'
p3255
asbag62
(g83
g64
NtRp3256
(dp3257
g67
(dp3258
g94
g95
ssg76
g3247
sg69
(lp3259
S':'
asbag62
(g83
g64
NtRp3260
(dp3261
g67
(dp3262
sg76
g3247
sg69
(lp3263
g62
(g63
g64
NtRp3264
(dp3265
g67
(dp3266
g75
I5
ssg76
g3260
sg69
(lp3267
S'design'
p3268
asbasbasbag62
(g78
g64
NtRp3269
(dp3270
g67
(dp3271
sg76
g72
sg69
(lp3272
g62
(g83
g64
NtRp3273
(dp3274
g67
(dp3275
g87
g88
ssg76
g3269
sg69
(lp3276
S'get_vars'
p3277
asbag62
(g83
g64
NtRp3278
(dp3279
g67
(dp3280
g94
g95
ssg76
g3269
sg69
(lp3281
S':'
asbag62
(g83
g64
NtRp3282
(dp3283
g67
(dp3284
sg76
g3269
sg69
(lp3285
g62
(g63
g64
NtRp3286
(dp3287
g67
(dp3288
g75
I5
ssg76
g3282
sg69
(lp3289
g62
(g71
g64
NtRp3290
(dp3291
g67
(dp3292
g75
I4
ssg76
Nsg69
(lp3293
sbasbasbasbag62
(g78
g64
NtRp3294
(dp3295
g67
(dp3296
sg76
g72
sg69
(lp3297
g62
(g83
g64
NtRp3298
(dp3299
g67
(dp3300
g87
g88
ssg76
g3294
sg69
(lp3301
S'is_restful'
p3302
asbag62
(g83
g64
NtRp3303
(dp3304
g67
(dp3305
g94
g95
ssg76
g3294
sg69
(lp3306
S':'
asbag62
(g83
g64
NtRp3307
(dp3308
g67
(dp3309
sg76
g3294
sg69
(lp3310
g62
(g63
g64
NtRp3311
(dp3312
g67
(dp3313
g75
I5
ssg76
g3307
sg69
(lp3314
g105
asbasbasbag62
(g78
g64
NtRp3315
(dp3316
g67
(dp3317
sg76
g72
sg69
(lp3318
g62
(g83
g64
NtRp3319
(dp3320
g67
(dp3321
g87
g88
ssg76
g3315
sg69
(lp3322
S'now'
p3323
asbag62
(g83
g64
NtRp3324
(dp3325
g67
(dp3326
g94
g95
ssg76
g3315
sg69
(lp3327
S':'
asbag62
(g83
g64
NtRp3328
(dp3329
g67
(dp3330
sg76
g3315
sg69
(lp3331
g62
(g63
g64
NtRp3332
(dp3333
g67
(dp3334
g75
I5
ssg76
g3328
sg69
(lp3335
S'datetime.datetime(2011, 6, 4, 16, 4, 7, 610000)'
p3336
asbasbasbag62
(g78
g64
NtRp3337
(dp3338
g67
(dp3339
sg76
g72
sg69
(lp3340
g62
(g83
g64
NtRp3341
(dp3342
g67
(dp3343
g87
g88
ssg76
g3337
sg69
(lp3344
S'post_vars'
p3345
asbag62
(g83
g64
NtRp3346
(dp3347
g67
(dp3348
g94
g95
ssg76
g3337
sg69
(lp3349
S':'
asbag62
(g83
g64
NtRp3350
(dp3351
g67
(dp3352
sg76
g3337
sg69
(lp3353
g62
(g63
g64
NtRp3354
(dp3355
g67
(dp3356
g75
I5
ssg76
g3350
sg69
(lp3357
g62
(g71
g64
NtRp3358
(dp3359
g67
(dp3360
g75
I4
ssg76
Nsg69
(lp3361
sbasbasbasbag62
(g78
g64
NtRp3362
(dp3363
g67
(dp3364
sg76
g72
sg69
(lp3365
g62
(g83
g64
NtRp3366
(dp3367
g67
(dp3368
g87
g88
ssg76
g3362
sg69
(lp3369
S'raw_args'
p3370
asbag62
(g83
g64
NtRp3371
(dp3372
g67
(dp3373
g94
g95
ssg76
g3362
sg69
(lp3374
S':'
asbag62
(g83
g64
NtRp3375
(dp3376
g67
(dp3377
sg76
g3362
sg69
(lp3378
g62
(g63
g64
NtRp3379
(dp3380
g67
(dp3381
g75
I5
ssg76
g3375
sg69
(lp3382
g164
asbasbasbag62
(g78
g64
NtRp3383
(dp3384
g67
(dp3385
sg76
g72
sg69
(lp3386
g62
(g83
g64
NtRp3387
(dp3388
g67
(dp3389
g87
g88
ssg76
g3383
sg69
(lp3390
S'url'
p3391
asbag62
(g83
g64
NtRp3392
(dp3393
g67
(dp3394
g94
g95
ssg76
g3383
sg69
(lp3395
S':'
asbag62
(g83
g64
NtRp3396
(dp3397
g67
(dp3398
sg76
g3383
sg69
(lp3399
g62
(g63
g64
NtRp3400
(dp3401
g67
(dp3402
g75
I5
ssg76
g3396
sg69
(lp3403
S'/admin/default/design/2p_fl'
p3404
asbasbasbag62
(g78
g64
NtRp3405
(dp3406
g67
(dp3407
sg76
g72
sg69
(lp3408
g62
(g83
g64
NtRp3409
(dp3410
g67
(dp3411
g87
g88
ssg76
g3405
sg69
(lp3412
S'uuid'
p3413
asbag62
(g83
g64
NtRp3414
(dp3415
g67
(dp3416
g94
g95
ssg76
g3405
sg69
(lp3417
S':'
asbag62
(g83
g64
NtRp3418
(dp3419
g67
(dp3420
sg76
g3405
sg69
(lp3421
g62
(g63
g64
NtRp3422
(dp3423
g67
(dp3424
g75
I5
ssg76
g3418
sg69
(lp3425
S'admin/127.0.0.1.2011-06-04.16-04-07.c82e6e41-c7da-45ac-8e9d-3fa9c3dce1d5'
p3426
asbasbasbag62
(g78
g64
NtRp3427
(dp3428
g67
(dp3429
sg76
g72
sg69
(lp3430
g62
(g83
g64
NtRp3431
(dp3432
g67
(dp3433
g87
g88
ssg76
g3427
sg69
(lp3434
S'vars'
p3435
asbag62
(g83
g64
NtRp3436
(dp3437
g67
(dp3438
g94
g95
ssg76
g3427
sg69
(lp3439
S':'
asbag62
(g83
g64
NtRp3440
(dp3441
g67
(dp3442
sg76
g3427
sg69
(lp3443
g62
(g63
g64
NtRp3444
(dp3445
g67
(dp3446
g75
I5
ssg76
g3440
sg69
(lp3447
g62
(g71
g64
NtRp3448
(dp3449
g67
(dp3450
g75
I4
ssg76
Nsg69
(lp3451
sbasbasbasbag62
(g78
g64
NtRp3452
(dp3453
g67
(dp3454
sg76
g72
sg69
(lp3455
g62
(g83
g64
NtRp3456
(dp3457
g67
(dp3458
g87
g88
ssg76
g3452
sg69
(lp3459
S'wsgi'
p3460
asbag62
(g83
g64
NtRp3461
(dp3462
g67
(dp3463
g94
g95
ssg76
g3452
sg69
(lp3464
S':'
asbag62
(g83
g64
NtRp3465
(dp3466
g67
(dp3467
sg76
g3452
sg69
(lp3468
g62
(g63
g64
NtRp3469
(dp3470
g67
(dp3471
g75
I5
ssg76
g3465
sg69
(lp3472
g62
(g71
g64
NtRp3473
(dp3474
g67
(dp3475
g75
I4
ssg76
Nsg69
(lp3476
g62
(g78
g64
NtRp3477
(dp3478
g67
(dp3479
sg76
g3473
sg69
(lp3480
g62
(g83
g64
NtRp3481
(dp3482
g67
(dp3483
g87
g88
ssg76
g3477
sg69
(lp3484
S'environ'
p3485
asbag62
(g83
g64
NtRp3486
(dp3487
g67
(dp3488
g94
g95
ssg76
g3477
sg69
(lp3489
S':'
asbag62
(g83
g64
NtRp3490
(dp3491
g67
(dp3492
sg76
g3477
sg69
(lp3493
g62
(g63
g64
NtRp3494
(dp3495
g67
(dp3496
g75
I4
ssg76
g3490
sg69
(lp3497
g62
(g71
g64
NtRp3498
(dp3499
g67
(dp3500
g75
I3
ssg76
Nsg69
(lp3501
g62
(g78
g64
NtRp3502
(dp3503
g67
(dp3504
sg76
g3498
sg69
(lp3505
g62
(g83
g64
NtRp3506
(dp3507
g67
(dp3508
g87
g88
ssg76
g3502
sg69
(lp3509
S'HTTP_ACCEPT'
p3510
asbag62
(g83
g64
NtRp3511
(dp3512
g67
(dp3513
g94
g95
ssg76
g3502
sg69
(lp3514
S':'
asbag62
(g83
g64
NtRp3515
(dp3516
g67
(dp3517
sg76
g3502
sg69
(lp3518
g62
(g63
g64
NtRp3519
(dp3520
g67
(dp3521
g75
I3
ssg76
g3515
sg69
(lp3522
g2501
asbasbasbag62
(g78
g64
NtRp3523
(dp3524
g67
(dp3525
sg76
g3498
sg69
(lp3526
g62
(g83
g64
NtRp3527
(dp3528
g67
(dp3529
g87
g88
ssg76
g3523
sg69
(lp3530
S'HTTP_ACCEPT_CHARSET'
p3531
asbag62
(g83
g64
NtRp3532
(dp3533
g67
(dp3534
g94
g95
ssg76
g3523
sg69
(lp3535
S':'
asbag62
(g83
g64
NtRp3536
(dp3537
g67
(dp3538
sg76
g3523
sg69
(lp3539
g62
(g63
g64
NtRp3540
(dp3541
g67
(dp3542
g75
I3
ssg76
g3536
sg69
(lp3543
g2523
asbasbasbag62
(g78
g64
NtRp3544
(dp3545
g67
(dp3546
sg76
g3498
sg69
(lp3547
g62
(g83
g64
NtRp3548
(dp3549
g67
(dp3550
g87
g88
ssg76
g3544
sg69
(lp3551
S'HTTP_ACCEPT_ENCODING'
p3552
asbag62
(g83
g64
NtRp3553
(dp3554
g67
(dp3555
g94
g95
ssg76
g3544
sg69
(lp3556
S':'
asbag62
(g83
g64
NtRp3557
(dp3558
g67
(dp3559
sg76
g3544
sg69
(lp3560
g62
(g63
g64
NtRp3561
(dp3562
g67
(dp3563
g75
I3
ssg76
g3557
sg69
(lp3564
g2545
asbasbasbag62
(g78
g64
NtRp3565
(dp3566
g67
(dp3567
sg76
g3498
sg69
(lp3568
g62
(g83
g64
NtRp3569
(dp3570
g67
(dp3571
g87
g88
ssg76
g3565
sg69
(lp3572
S'HTTP_ACCEPT_LANGUAGE'
p3573
asbag62
(g83
g64
NtRp3574
(dp3575
g67
(dp3576
g94
g95
ssg76
g3565
sg69
(lp3577
S':'
asbag62
(g83
g64
NtRp3578
(dp3579
g67
(dp3580
sg76
g3565
sg69
(lp3581
g62
(g63
g64
NtRp3582
(dp3583
g67
(dp3584
g75
I3
ssg76
g3578
sg69
(lp3585
g2567
asbasbasbag62
(g78
g64
NtRp3586
(dp3587
g67
(dp3588
sg76
g3498
sg69
(lp3589
g62
(g83
g64
NtRp3590
(dp3591
g67
(dp3592
g87
g88
ssg76
g3586
sg69
(lp3593
S'HTTP_CONNECTION'
p3594
asbag62
(g83
g64
NtRp3595
(dp3596
g67
(dp3597
g94
g95
ssg76
g3586
sg69
(lp3598
S':'
asbag62
(g83
g64
NtRp3599
(dp3600
g67
(dp3601
sg76
g3586
sg69
(lp3602
g62
(g63
g64
NtRp3603
(dp3604
g67
(dp3605
g75
I3
ssg76
g3599
sg69
(lp3606
g2589
asbasbasbag62
(g78
g64
NtRp3607
(dp3608
g67
(dp3609
sg76
g3498
sg69
(lp3610
g62
(g83
g64
NtRp3611
(dp3612
g67
(dp3613
g87
g88
ssg76
g3607
sg69
(lp3614
S'HTTP_COOKIE'
p3615
asbag62
(g83
g64
NtRp3616
(dp3617
g67
(dp3618
g94
g95
ssg76
g3607
sg69
(lp3619
S':'
asbag62
(g83
g64
NtRp3620
(dp3621
g67
(dp3622
sg76
g3607
sg69
(lp3623
g62
(g63
g64
NtRp3624
(dp3625
g67
(dp3626
g75
I3
ssg76
g3620
sg69
(lp3627
g2611
asbasbasbag62
(g78
g64
NtRp3628
(dp3629
g67
(dp3630
sg76
g3498
sg69
(lp3631
g62
(g83
g64
NtRp3632
(dp3633
g67
(dp3634
g87
g88
ssg76
g3628
sg69
(lp3635
S'HTTP_HOST'
p3636
asbag62
(g83
g64
NtRp3637
(dp3638
g67
(dp3639
g94
g95
ssg76
g3628
sg69
(lp3640
S':'
asbag62
(g83
g64
NtRp3641
(dp3642
g67
(dp3643
sg76
g3628
sg69
(lp3644
g62
(g63
g64
NtRp3645
(dp3646
g67
(dp3647
g75
I3
ssg76
g3641
sg69
(lp3648
g2633
asbasbasbag62
(g78
g64
NtRp3649
(dp3650
g67
(dp3651
sg76
g3498
sg69
(lp3652
g62
(g83
g64
NtRp3653
(dp3654
g67
(dp3655
g87
g88
ssg76
g3649
sg69
(lp3656
S'HTTP_REFERER'
p3657
asbag62
(g83
g64
NtRp3658
(dp3659
g67
(dp3660
g94
g95
ssg76
g3649
sg69
(lp3661
S':'
asbag62
(g83
g64
NtRp3662
(dp3663
g67
(dp3664
sg76
g3649
sg69
(lp3665
g62
(g63
g64
NtRp3666
(dp3667
g67
(dp3668
g75
I3
ssg76
g3662
sg69
(lp3669
g2655
asbasbasbag62
(g78
g64
NtRp3670
(dp3671
g67
(dp3672
sg76
g3498
sg69
(lp3673
g62
(g83
g64
NtRp3674
(dp3675
g67
(dp3676
g87
g88
ssg76
g3670
sg69
(lp3677
S'HTTP_USER_AGENT'
p3678
asbag62
(g83
g64
NtRp3679
(dp3680
g67
(dp3681
g94
g95
ssg76
g3670
sg69
(lp3682
S':'
asbag62
(g83
g64
NtRp3683
(dp3684
g67
(dp3685
sg76
g3670
sg69
(lp3686
g62
(g63
g64
NtRp3687
(dp3688
g67
(dp3689
g75
I3
ssg76
g3683
sg69
(lp3690
g2677
asbasbasbag62
(g78
g64
NtRp3691
(dp3692
g67
(dp3693
sg76
g3498
sg69
(lp3694
g62
(g83
g64
NtRp3695
(dp3696
g67
(dp3697
g87
g88
ssg76
g3691
sg69
(lp3698
S'PATH_INFO'
p3699
asbag62
(g83
g64
NtRp3700
(dp3701
g67
(dp3702
g94
g95
ssg76
g3691
sg69
(lp3703
S':'
asbag62
(g83
g64
NtRp3704
(dp3705
g67
(dp3706
sg76
g3691
sg69
(lp3707
g62
(g63
g64
NtRp3708
(dp3709
g67
(dp3710
g75
I3
ssg76
g3704
sg69
(lp3711
g2699
asbasbasbag62
(g78
g64
NtRp3712
(dp3713
g67
(dp3714
sg76
g3498
sg69
(lp3715
g62
(g83
g64
NtRp3716
(dp3717
g67
(dp3718
g87
g88
ssg76
g3712
sg69
(lp3719
S'QUERY_STRING'
p3720
asbag62
(g83
g64
NtRp3721
(dp3722
g67
(dp3723
g94
g95
ssg76
g3712
sg69
(lp3724
S':'
asbag62
(g83
g64
NtRp3725
(dp3726
g67
(dp3727
sg76
g3712
sg69
(lp3728
g62
(g63
g64
NtRp3729
(dp3730
g67
(dp3731
g75
I3
ssg76
g3725
sg69
(lp3732
S''
asbasbasbag62
(g78
g64
NtRp3733
(dp3734
g67
(dp3735
sg76
g3498
sg69
(lp3736
g62
(g83
g64
NtRp3737
(dp3738
g67
(dp3739
g87
g88
ssg76
g3733
sg69
(lp3740
S'REMOTE_ADDR'
p3741
asbag62
(g83
g64
NtRp3742
(dp3743
g67
(dp3744
g94
g95
ssg76
g3733
sg69
(lp3745
S':'
asbag62
(g83
g64
NtRp3746
(dp3747
g67
(dp3748
sg76
g3733
sg69
(lp3749
g62
(g63
g64
NtRp3750
(dp3751
g67
(dp3752
g75
I3
ssg76
g3746
sg69
(lp3753
g208
asbasbasbag62
(g78
g64
NtRp3754
(dp3755
g67
(dp3756
sg76
g3498
sg69
(lp3757
g62
(g83
g64
NtRp3758
(dp3759
g67
(dp3760
g87
g88
ssg76
g3754
sg69
(lp3761
S'REMOTE_PORT'
p3762
asbag62
(g83
g64
NtRp3763
(dp3764
g67
(dp3765
g94
g95
ssg76
g3754
sg69
(lp3766
S':'
asbag62
(g83
g64
NtRp3767
(dp3768
g67
(dp3769
sg76
g3754
sg69
(lp3770
g62
(g63
g64
NtRp3771
(dp3772
g67
(dp3773
g75
I3
ssg76
g3767
sg69
(lp3774
g2763
asbasbasbag62
(g78
g64
NtRp3775
(dp3776
g67
(dp3777
sg76
g3498
sg69
(lp3778
g62
(g83
g64
NtRp3779
(dp3780
g67
(dp3781
g87
g88
ssg76
g3775
sg69
(lp3782
S'REQUEST_METHOD'
p3783
asbag62
(g83
g64
NtRp3784
(dp3785
g67
(dp3786
g94
g95
ssg76
g3775
sg69
(lp3787
S':'
asbag62
(g83
g64
NtRp3788
(dp3789
g67
(dp3790
sg76
g3775
sg69
(lp3791
g62
(g63
g64
NtRp3792
(dp3793
g67
(dp3794
g75
I3
ssg76
g3788
sg69
(lp3795
g2785
asbasbasbag62
(g78
g64
NtRp3796
(dp3797
g67
(dp3798
sg76
g3498
sg69
(lp3799
g62
(g83
g64
NtRp3800
(dp3801
g67
(dp3802
g87
g88
ssg76
g3796
sg69
(lp3803
S'REQUEST_URI'
p3804
asbag62
(g83
g64
NtRp3805
(dp3806
g67
(dp3807
g94
g95
ssg76
g3796
sg69
(lp3808
S':'
asbag62
(g83
g64
NtRp3809
(dp3810
g67
(dp3811
sg76
g3796
sg69
(lp3812
g62
(g63
g64
NtRp3813
(dp3814
g67
(dp3815
g75
I3
ssg76
g3809
sg69
(lp3816
g2699
asbasbasbag62
(g78
g64
NtRp3817
(dp3818
g67
(dp3819
sg76
g3498
sg69
(lp3820
g62
(g83
g64
NtRp3821
(dp3822
g67
(dp3823
g87
g88
ssg76
g3817
sg69
(lp3824
S'SCRIPT_NAME'
p3825
asbag62
(g83
g64
NtRp3826
(dp3827
g67
(dp3828
g94
g95
ssg76
g3817
sg69
(lp3829
S':'
asbag62
(g83
g64
NtRp3830
(dp3831
g67
(dp3832
sg76
g3817
sg69
(lp3833
g62
(g63
g64
NtRp3834
(dp3835
g67
(dp3836
g75
I3
ssg76
g3830
sg69
(lp3837
S''
asbasbasbag62
(g78
g64
NtRp3838
(dp3839
g67
(dp3840
sg76
g3498
sg69
(lp3841
g62
(g83
g64
NtRp3842
(dp3843
g67
(dp3844
g87
g88
ssg76
g3838
sg69
(lp3845
S'SERVER_NAME'
p3846
asbag62
(g83
g64
NtRp3847
(dp3848
g67
(dp3849
g94
g95
ssg76
g3838
sg69
(lp3850
S':'
asbag62
(g83
g64
NtRp3851
(dp3852
g67
(dp3853
sg76
g3838
sg69
(lp3854
g62
(g63
g64
NtRp3855
(dp3856
g67
(dp3857
g75
I3
ssg76
g3851
sg69
(lp3858
g2849
asbasbasbag62
(g78
g64
NtRp3859
(dp3860
g67
(dp3861
sg76
g3498
sg69
(lp3862
g62
(g83
g64
NtRp3863
(dp3864
g67
(dp3865
g87
g88
ssg76
g3859
sg69
(lp3866
S'SERVER_PORT'
p3867
asbag62
(g83
g64
NtRp3868
(dp3869
g67
(dp3870
g94
g95
ssg76
g3859
sg69
(lp3871
S':'
asbag62
(g83
g64
NtRp3872
(dp3873
g67
(dp3874
sg76
g3859
sg69
(lp3875
g62
(g63
g64
NtRp3876
(dp3877
g67
(dp3878
g75
I3
ssg76
g3872
sg69
(lp3879
g2871
asbasbasbag62
(g78
g64
NtRp3880
(dp3881
g67
(dp3882
sg76
g3498
sg69
(lp3883
g62
(g83
g64
NtRp3884
(dp3885
g67
(dp3886
g87
g88
ssg76
g3880
sg69
(lp3887
S'SERVER_PROTOCOL'
p3888
asbag62
(g83
g64
NtRp3889
(dp3890
g67
(dp3891
g94
g95
ssg76
g3880
sg69
(lp3892
S':'
asbag62
(g83
g64
NtRp3893
(dp3894
g67
(dp3895
sg76
g3880
sg69
(lp3896
g62
(g63
g64
NtRp3897
(dp3898
g67
(dp3899
g75
I3
ssg76
g3893
sg69
(lp3900
g2893
asbasbasbag62
(g78
g64
NtRp3901
(dp3902
g67
(dp3903
sg76
g3498
sg69
(lp3904
g62
(g83
g64
NtRp3905
(dp3906
g67
(dp3907
g87
g88
ssg76
g3901
sg69
(lp3908
S'SERVER_SOFTWARE'
p3909
asbag62
(g83
g64
NtRp3910
(dp3911
g67
(dp3912
g94
g95
ssg76
g3901
sg69
(lp3913
S':'
asbag62
(g83
g64
NtRp3914
(dp3915
g67
(dp3916
sg76
g3901
sg69
(lp3917
g62
(g63
g64
NtRp3918
(dp3919
g67
(dp3920
g75
I3
ssg76
g3914
sg69
(lp3921
g2915
asbasbasbag62
(g78
g64
NtRp3922
(dp3923
g67
(dp3924
sg76
g3498
sg69
(lp3925
g62
(g83
g64
NtRp3926
(dp3927
g67
(dp3928
g87
g88
ssg76
g3922
sg69
(lp3929
S'WEB2PY_ORIGINAL_URI'
p3930
asbag62
(g83
g64
NtRp3931
(dp3932
g67
(dp3933
g94
g95
ssg76
g3922
sg69
(lp3934
S':'
asbag62
(g83
g64
NtRp3935
(dp3936
g67
(dp3937
sg76
g3922
sg69
(lp3938
g62
(g63
g64
NtRp3939
(dp3940
g67
(dp3941
g75
I3
ssg76
g3935
sg69
(lp3942
g2699
asbasbasbag62
(g78
g64
NtRp3943
(dp3944
g67
(dp3945
sg76
g3498
sg69
(lp3946
g62
(g83
g64
NtRp3947
(dp3948
g67
(dp3949
g87
g88
ssg76
g3943
sg69
(lp3950
S'wsgi.errors'
p3951
asbag62
(g83
g64
NtRp3952
(dp3953
g67
(dp3954
g94
g95
ssg76
g3943
sg69
(lp3955
S':'
asbag62
(g83
g64
NtRp3956
(dp3957
g67
(dp3958
sg76
g3943
sg69
(lp3959
g62
(g63
g64
NtRp3960
(dp3961
g67
(dp3962
g75
I3
ssg76
g3956
sg69
(lp3963
S"<open file '<stderr>', mode 'w' at 0xb74800d0>"
p3964
asbasbasbag62
(g78
g64
NtRp3965
(dp3966
g67
(dp3967
sg76
g3498
sg69
(lp3968
g62
(g83
g64
NtRp3969
(dp3970
g67
(dp3971
g87
g88
ssg76
g3965
sg69
(lp3972
S'wsgi.file_wrapper'
p3973
asbag62
(g83
g64
NtRp3974
(dp3975
g67
(dp3976
g94
g95
ssg76
g3965
sg69
(lp3977
S':'
asbag62
(g83
g64
NtRp3978
(dp3979
g67
(dp3980
sg76
g3965
sg69
(lp3981
g62
(g63
g64
NtRp3982
(dp3983
g67
(dp3984
g75
I3
ssg76
g3978
sg69
(lp3985
S'<class gluon.rocket.FileWrapper at 0x844dbfc>'
p3986
asbasbasbag62
(g78
g64
NtRp3987
(dp3988
g67
(dp3989
sg76
g3498
sg69
(lp3990
g62
(g83
g64
NtRp3991
(dp3992
g67
(dp3993
g87
g88
ssg76
g3987
sg69
(lp3994
S'wsgi.input'
p3995
asbag62
(g83
g64
NtRp3996
(dp3997
g67
(dp3998
g94
g95
ssg76
g3987
sg69
(lp3999
S':'
asbag62
(g83
g64
NtRp4000
(dp4001
g67
(dp4002
sg76
g3987
sg69
(lp4003
g62
(g63
g64
NtRp4004
(dp4005
g67
(dp4006
g75
I3
ssg76
g4000
sg69
(lp4007
S'<cStringIO.StringO object at 0x8bb5f60>'
p4008
asbasbasbag62
(g78
g64
NtRp4009
(dp4010
g67
(dp4011
sg76
g3498
sg69
(lp4012
g62
(g83
g64
NtRp4013
(dp4014
g67
(dp4015
g87
g88
ssg76
g4009
sg69
(lp4016
S'wsgi.multiprocess'
p4017
asbag62
(g83
g64
NtRp4018
(dp4019
g67
(dp4020
g94
g95
ssg76
g4009
sg69
(lp4021
S':'
asbag62
(g83
g64
NtRp4022
(dp4023
g67
(dp4024
sg76
g4009
sg69
(lp4025
g62
(g63
g64
NtRp4026
(dp4027
g67
(dp4028
g75
I3
ssg76
g4022
sg69
(lp4029
g105
asbasbasbag62
(g78
g64
NtRp4030
(dp4031
g67
(dp4032
sg76
g3498
sg69
(lp4033
g62
(g83
g64
NtRp4034
(dp4035
g67
(dp4036
g87
g88
ssg76
g4030
sg69
(lp4037
S'wsgi.multithread'
p4038
asbag62
(g83
g64
NtRp4039
(dp4040
g67
(dp4041
g94
g95
ssg76
g4030
sg69
(lp4042
S':'
asbag62
(g83
g64
NtRp4043
(dp4044
g67
(dp4045
sg76
g4030
sg69
(lp4046
g62
(g63
g64
NtRp4047
(dp4048
g67
(dp4049
g75
I3
ssg76
g4043
sg69
(lp4050
g3110
asbasbasbag62
(g78
g64
NtRp4051
(dp4052
g67
(dp4053
sg76
g3498
sg69
(lp4054
g62
(g83
g64
NtRp4055
(dp4056
g67
(dp4057
g87
g88
ssg76
g4051
sg69
(lp4058
S'wsgi.run_once'
p4059
asbag62
(g83
g64
NtRp4060
(dp4061
g67
(dp4062
g94
g95
ssg76
g4051
sg69
(lp4063
S':'
asbag62
(g83
g64
NtRp4064
(dp4065
g67
(dp4066
sg76
g4051
sg69
(lp4067
g62
(g63
g64
NtRp4068
(dp4069
g67
(dp4070
g75
I3
ssg76
g4064
sg69
(lp4071
g105
asbasbasbag62
(g78
g64
NtRp4072
(dp4073
g67
(dp4074
sg76
g3498
sg69
(lp4075
g62
(g83
g64
NtRp4076
(dp4077
g67
(dp4078
g87
g88
ssg76
g4072
sg69
(lp4079
S'wsgi.url_scheme'
p4080
asbag62
(g83
g64
NtRp4081
(dp4082
g67
(dp4083
g94
g95
ssg76
g4072
sg69
(lp4084
S':'
asbag62
(g83
g64
NtRp4085
(dp4086
g67
(dp4087
sg76
g4072
sg69
(lp4088
g62
(g63
g64
NtRp4089
(dp4090
g67
(dp4091
g75
I3
ssg76
g4085
sg69
(lp4092
g3153
asbasbasbag62
(g78
g64
NtRp4093
(dp4094
g67
(dp4095
sg76
g3498
sg69
(lp4096
g62
(g83
g64
NtRp4097
(dp4098
g67
(dp4099
g87
g88
ssg76
g4093
sg69
(lp4100
S'wsgi.version'
p4101
asbag62
(g83
g64
NtRp4102
(dp4103
g67
(dp4104
g94
g95
ssg76
g4093
sg69
(lp4105
S':'
asbag62
(g83
g64
NtRp4106
(dp4107
g67
(dp4108
sg76
g4093
sg69
(lp4109
g62
(g63
g64
NtRp4110
(dp4111
g67
(dp4112
g75
I3
ssg76
g4106
sg69
(lp4113
S'1'
asbasbasbasbasbasbasbasbasbasbasbasbasbsS'frames'
p4114
(lp4115
(dp4116
S'file'
p4117
S'/home/nekro/Devel/.virtualenvs/web2py/lib/python2.7/site-packages/gluon/restricted.py'
p4118
sS'dump'
p4119
(dp4120
S'environment'
p4121
S"{'A': <class 'gluon.html.A'>, 'ALLOW_TOGGLE': 'true', 'B': <class 'gluon.html.B'>, 'BEAUTIFY': <class 'gluon.html.BEAUTIFY'>, 'BODY': <class 'gluon.html.BODY'>, 'BR': <class 'gluon.html.BR'>, 'CENTER': <class 'gluon.html.CENTER'>, 'CHECK_VERSION': True, 'CLEANUP': <class 'gluon.validators.CLEANUP'>, 'CODE': <class 'gluon.html.CODE'>, ...}"
p4122
sS'ccode'
p4123
S'<code object <module> at 0x89d7578, file "/home/...plications/admin/controllers/default.py", line 3>'
p4124
ssS'lnum'
p4125
I181
sS'lines'
p4126
(dp4127
I176
S'    try:'
p4128
sI177
S'        if type(code) == types.CodeType:'
p4129
sI178
S'            ccode = code'
p4130
sI179
S'        else:'
p4131
sI180
S'            ccode = compile2(code,layer)'
p4132
sI181
S'        exec ccode in environment'
p4133
sI182
S'    except HTTP:'
p4134
sI183
S'        raise'
p4135
sI184
S'    except Exception:'
p4136
sI185
S'        # XXX Show exception in Wing IDE if running in debugger'
p4137
ssS'call'
p4138
S'(code="# coding: utf8\\n\\nfrom gluon.admin import *\\nfrom g...site\'))\\n\\nresponse._vars=response._caller(design)\\n", environment={\'A\': <class \'gluon.html.A\'>, \'ALLOW_TOGGLE\': \'true\', \'B\': <class \'gluon.html.B\'>, \'BEAUTIFY\': <class \'gluon.html.BEAUTIFY\'>, \'BODY\': <class \'gluon.html.BODY\'>, \'BR\': <class \'gluon.html.BR\'>, \'CENTER\': <class \'gluon.html.CENTER\'>, \'CHECK_VERSION\': True, \'CLEANUP\': <class \'gluon.validators.CLEANUP\'>, \'CODE\': <class \'gluon.html.CODE\'>, ...}, layer=\'/home/nekro/Devel/myprojects/web2py/base/applications/admin/controllers/default.py\')'
p4139
sS'func'
p4140
S'restricted'
p4141
sa(dp4142
g4117
S'/home/nekro/Devel/myprojects/web2py/base/applications/admin/controllers/default.py'
p4143
sg4119
(dp4144
sg4125
I1188
sg4126
(dp4145
I1184
S'   """ Reload routes.py """'
p4146
sI1185
S'   gluon.rewrite.load()'
p4147
sI1186
S"   redirect(URL('site'))"
p4148
sI1177
S'        if not db(db.auth_user).count():'
p4149
sI1178
S'            auth.settings.registration_requires_approval = False'
p4150
sI1179
S'        return dict(form=auth())'
p4151
sI1180
S'    else:'
p4152
sI1181
S'        return dict(form=T("Disabled"))'
p4153
sI1182
S''
sI1183
S'def reload_routes():'
p4154
ssg4138
S'()'
p4155
sg4140
S'<module>'
p4156
sa(dp4157
g4117
S'/home/nekro/Devel/.virtualenvs/web2py/lib/python2.7/site-packages/gluon/globals.py'
p4158
sg4119
(dp4159
S'self'
p4160
S'undefined'
p4161
sS'f'
S'<function design>'
p4162
ssg4125
I133
sg4126
(dp4163
I128
S"        self.flash = ''           # used by the default view layout"
p4164
sI129
S'        self.meta = Storage()     # used by web2py_ajax.html'
p4165
sI130
S'        self.menu = []            # used by the default view layout'
p4166
sI131
S'        self.files = []           # used by web2py_ajax.html'
p4167
sI132
S'        self._vars = None'
p4168
sI133
S'        self._caller = lambda f: f()'
p4169
sI134
S'        self._view_environment = None'
p4170
sI135
S'        self._custom_commit = None'
p4171
sI136
S'        self._custom_rollback = None'
p4172
sI137
S''
ssg4138
S'(f=<function design>)'
p4173
sg4140
S'<lambda>'
p4174
sa(dp4175
g4117
S'/home/nekro/Devel/myprojects/web2py/base/applications/admin/controllers/default.py'
p4176
sg4119
(dp4177
S'cronfolder'
p4178
S"'/home/nekro/Devel/myprojects/web2py/base/applications/2p_fl/cron'"
p4179
sS'os.path.exists'
p4180
S'<function exists>'
p4181
sS'global os'
p4182
S"<module 'os' from '/home/nekro/Devel/.virtualenvs/web2py/lib/python2.7/os.pyc'>"
p4183
sS'os.mkdir'
p4184
S'<built-in function mkdir>'
p4185
sS'os.path'
p4186
S"<module 'posixpath' from '/home/nekro/Devel/.virtualenvs/web2py/lib/python2.7/posixpath.pyc'>"
p4187
ssg4125
I718
sg4126
(dp4188
I713
S'    # Get all languages'
p4189
sI714
S"    languages = listdir(apath('%s/languages/' % app, r=request), '[\\w-]*\\.py')"
p4190
sI715
S''
sI716
S'    #Get crontab'
p4191
sI717
S"    cronfolder = apath('%s/cron' % app, r=request)"
p4192
sI718
S'    if not os.path.exists(cronfolder): os.mkdir(cronfolder)'
p4193
sI719
S"    crontab = apath('%s/cron/crontab' % app, r=request)"
p4194
sI720
S'    if not os.path.exists(crontab):'
p4195
sI721
S"        safe_open(crontab,'w').write('#crontab')"
p4196
sI722
S''
ssg4138
S'()'
p4197
sg4140
S'design'
p4198
sasS'pyver'
p4199
S'Python 2.7.1: /home/nekro/Devel/.virtualenvs/web2py/bin/python2.7'
p4200
sS'session'
p4201
g62
(g63
g64
NtRp4202
(dp4203
g67
(dp4204
sg69
(lp4205
g62
(g71
g64
NtRp4206
(dp4207
g67
(dp4208
g75
I5
ssg76
Nsg69
(lp4209
g62
(g78
g64
NtRp4210
(dp4211
g67
(dp4212
sg76
g4206
sg69
(lp4213
g62
(g83
g64
NtRp4214
(dp4215
g67
(dp4216
g87
g88
ssg76
g4210
sg69
(lp4217
S'authorized'
p4218
asbag62
(g83
g64
NtRp4219
(dp4220
g67
(dp4221
g94
g95
ssg76
g4210
sg69
(lp4222
S':'
asbag62
(g83
g64
NtRp4223
(dp4224
g67
(dp4225
sg76
g4210
sg69
(lp4226
g62
(g63
g64
NtRp4227
(dp4228
g67
(dp4229
g75
I5
ssg76
g4223
sg69
(lp4230
g3110
asbasbasbag62
(g78
g64
NtRp4231
(dp4232
g67
(dp4233
sg76
g4206
sg69
(lp4234
g62
(g83
g64
NtRp4235
(dp4236
g67
(dp4237
g87
g88
ssg76
g4231
sg69
(lp4238
S'check_version'
p4239
asbag62
(g83
g64
NtRp4240
(dp4241
g67
(dp4242
g94
g95
ssg76
g4231
sg69
(lp4243
S':'
asbag62
(g83
g64
NtRp4244
(dp4245
g67
(dp4246
sg76
g4231
sg69
(lp4247
g62
(g63
g64
NtRp4248
(dp4249
g67
(dp4250
g75
I5
ssg76
g4244
sg69
(lp4251
g105
asbasbasbag62
(g78
g64
NtRp4252
(dp4253
g67
(dp4254
sg76
g4206
sg69
(lp4255
g62
(g83
g64
NtRp4256
(dp4257
g67
(dp4258
g87
g88
ssg76
g4252
sg69
(lp4259
S'last_time'
p4260
asbag62
(g83
g64
NtRp4261
(dp4262
g67
(dp4263
g94
g95
ssg76
g4252
sg69
(lp4264
S':'
asbag62
(g83
g64
NtRp4265
(dp4266
g67
(dp4267
sg76
g4252
sg69
(lp4268
g62
(g63
g64
NtRp4269
(dp4270
g67
(dp4271
g75
I5
ssg76
g4265
sg69
(lp4272
S'1307221447.61'
p4273
asbasbasbasbasbsS'etype'
p4274
S"<type 'exceptions.OSError'>"
p4275
sS'date'
p4276
S'Sat Jun  4 16:04:07 2011'
p4277
sS'response'
p4278
g62
(g63
g64
NtRp4279
(dp4280
g67
(dp4281
sg69
(lp4282
g62
(g71
g64
NtRp4283
(dp4284
g67
(dp4285
g75
I5
ssg76
Nsg69
(lp4286
g62
(g78
g64
NtRp4287
(dp4288
g67
(dp4289
sg76
g4283
sg69
(lp4290
g62
(g83
g64
NtRp4291
(dp4292
g67
(dp4293
g87
g88
ssg76
g4287
sg69
(lp4294
g173
asbag62
(g83
g64
NtRp4295
(dp4296
g67
(dp4297
g94
g95
ssg76
g4287
sg69
(lp4298
S':'
asbag62
(g83
g64
NtRp4299
(dp4300
g67
(dp4301
sg76
g4287
sg69
(lp4302
g62
(g63
g64
NtRp4303
(dp4304
g67
(dp4305
g75
I5
ssg76
g4299
sg69
(lp4306
S'<cStringIO.StringO object at 0x898a4e0>'
p4307
asbasbasbag62
(g78
g64
NtRp4308
(dp4309
g67
(dp4310
sg76
g4283
sg69
(lp4311
g62
(g83
g64
NtRp4312
(dp4313
g67
(dp4314
g87
g88
ssg76
g4308
sg69
(lp4315
g239
asbag62
(g83
g64
NtRp4316
(dp4317
g67
(dp4318
g94
g95
ssg76
g4308
sg69
(lp4319
S':'
asbag62
(g83
g64
NtRp4320
(dp4321
g67
(dp4322
sg76
g4308
sg69
(lp4323
g62
(g63
g64
NtRp4324
(dp4325
g67
(dp4326
g75
I5
ssg76
g4320
sg69
(lp4327
g62
(g71
g64
NtRp4328
(dp4329
g67
(dp4330
g75
I4
ssg76
Nsg69
(lp4331
g62
(g78
g64
NtRp4332
(dp4333
g67
(dp4334
sg76
g4328
sg69
(lp4335
g62
(g83
g64
NtRp4336
(dp4337
g67
(dp4338
g87
g88
ssg76
g4332
sg69
(lp4339
S'session_id_admin'
p4340
asbag62
(g83
g64
NtRp4341
(dp4342
g67
(dp4343
g94
g95
ssg76
g4332
sg69
(lp4344
S':'
asbag62
(g83
g64
NtRp4345
(dp4346
g67
(dp4347
sg76
g4332
sg69
(lp4348
g62
(g63
g64
NtRp4349
(dp4350
g67
(dp4351
g75
I4
ssg76
g4345
sg69
(lp4352
g62
(g71
g64
NtRp4353
(dp4354
g67
(dp4355
g75
I3
ssg76
Nsg69
(lp4356
g62
(g78
g64
NtRp4357
(dp4358
g67
(dp4359
sg76
g4353
sg69
(lp4360
g62
(g83
g64
NtRp4361
(dp4362
g67
(dp4363
g87
g88
ssg76
g4357
sg69
(lp4364
g289
asbag62
(g83
g64
NtRp4365
(dp4366
g67
(dp4367
g94
g95
ssg76
g4357
sg69
(lp4368
S':'
asbag62
(g83
g64
NtRp4369
(dp4370
g67
(dp4371
sg76
g4357
sg69
(lp4372
g62
(g63
g64
NtRp4373
(dp4374
g67
(dp4375
g75
I3
ssg76
g4369
sg69
(lp4376
S''
asbasbasbag62
(g78
g64
NtRp4377
(dp4378
g67
(dp4379
sg76
g4353
sg69
(lp4380
g62
(g83
g64
NtRp4381
(dp4382
g67
(dp4383
g87
g88
ssg76
g4377
sg69
(lp4384
g310
asbag62
(g83
g64
NtRp4385
(dp4386
g67
(dp4387
g94
g95
ssg76
g4377
sg69
(lp4388
S':'
asbag62
(g83
g64
NtRp4389
(dp4390
g67
(dp4391
sg76
g4377
sg69
(lp4392
g62
(g63
g64
NtRp4393
(dp4394
g67
(dp4395
g75
I3
ssg76
g4389
sg69
(lp4396
S''
asbasbasbag62
(g78
g64
NtRp4397
(dp4398
g67
(dp4399
sg76
g4353
sg69
(lp4400
g62
(g83
g64
NtRp4401
(dp4402
g67
(dp4403
g87
g88
ssg76
g4397
sg69
(lp4404
g331
asbag62
(g83
g64
NtRp4405
(dp4406
g67
(dp4407
g94
g95
ssg76
g4397
sg69
(lp4408
S':'
asbag62
(g83
g64
NtRp4409
(dp4410
g67
(dp4411
sg76
g4397
sg69
(lp4412
g62
(g63
g64
NtRp4413
(dp4414
g67
(dp4415
g75
I3
ssg76
g4409
sg69
(lp4416
S''
asbasbasbag62
(g78
g64
NtRp4417
(dp4418
g67
(dp4419
sg76
g4353
sg69
(lp4420
g62
(g83
g64
NtRp4421
(dp4422
g67
(dp4423
g87
g88
ssg76
g4417
sg69
(lp4424
g352
asbag62
(g83
g64
NtRp4425
(dp4426
g67
(dp4427
g94
g95
ssg76
g4417
sg69
(lp4428
S':'
asbag62
(g83
g64
NtRp4429
(dp4430
g67
(dp4431
sg76
g4417
sg69
(lp4432
g62
(g63
g64
NtRp4433
(dp4434
g67
(dp4435
g75
I3
ssg76
g4429
sg69
(lp4436
S''
asbasbasbag62
(g78
g64
NtRp4437
(dp4438
g67
(dp4439
sg76
g4353
sg69
(lp4440
g62
(g83
g64
NtRp4441
(dp4442
g67
(dp4443
g87
g88
ssg76
g4437
sg69
(lp4444
g373
asbag62
(g83
g64
NtRp4445
(dp4446
g67
(dp4447
g94
g95
ssg76
g4437
sg69
(lp4448
S':'
asbag62
(g83
g64
NtRp4449
(dp4450
g67
(dp4451
sg76
g4437
sg69
(lp4452
g62
(g63
g64
NtRp4453
(dp4454
g67
(dp4455
g75
I3
ssg76
g4449
sg69
(lp4456
S''
asbasbasbag62
(g78
g64
NtRp4457
(dp4458
g67
(dp4459
sg76
g4353
sg69
(lp4460
g62
(g83
g64
NtRp4461
(dp4462
g67
(dp4463
g87
g88
ssg76
g4457
sg69
(lp4464
g394
asbag62
(g83
g64
NtRp4465
(dp4466
g67
(dp4467
g94
g95
ssg76
g4457
sg69
(lp4468
S':'
asbag62
(g83
g64
NtRp4469
(dp4470
g67
(dp4471
sg76
g4457
sg69
(lp4472
g62
(g63
g64
NtRp4473
(dp4474
g67
(dp4475
g75
I3
ssg76
g4469
sg69
(lp4476
S'/'
asbasbasbag62
(g78
g64
NtRp4477
(dp4478
g67
(dp4479
sg76
g4353
sg69
(lp4480
g62
(g83
g64
NtRp4481
(dp4482
g67
(dp4483
g87
g88
ssg76
g4477
sg69
(lp4484
g415
asbag62
(g83
g64
NtRp4485
(dp4486
g67
(dp4487
g94
g95
ssg76
g4477
sg69
(lp4488
S':'
asbag62
(g83
g64
NtRp4489
(dp4490
g67
(dp4491
sg76
g4477
sg69
(lp4492
g62
(g63
g64
NtRp4493
(dp4494
g67
(dp4495
g75
I3
ssg76
g4489
sg69
(lp4496
S''
asbasbasbag62
(g78
g64
NtRp4497
(dp4498
g67
(dp4499
sg76
g4353
sg69
(lp4500
g62
(g83
g64
NtRp4501
(dp4502
g67
(dp4503
g87
g88
ssg76
g4497
sg69
(lp4504
g436
asbag62
(g83
g64
NtRp4505
(dp4506
g67
(dp4507
g94
g95
ssg76
g4497
sg69
(lp4508
S':'
asbag62
(g83
g64
NtRp4509
(dp4510
g67
(dp4511
sg76
g4497
sg69
(lp4512
g62
(g63
g64
NtRp4513
(dp4514
g67
(dp4515
g75
I3
ssg76
g4509
sg69
(lp4516
S''
asbasbasbasbasbasbasbasbasbasbasbag62
(g78
g64
NtRp4517
(dp4518
g67
(dp4519
sg76
g4283
sg69
(lp4520
g62
(g83
g64
NtRp4521
(dp4522
g67
(dp4523
g87
g88
ssg76
g4517
sg69
(lp4524
S'files'
p4525
asbag62
(g83
g64
NtRp4526
(dp4527
g67
(dp4528
g94
g95
ssg76
g4517
sg69
(lp4529
S':'
asbag62
(g83
g64
NtRp4530
(dp4531
g67
(dp4532
sg76
g4517
sg69
(lp4533
g62
(g63
g64
NtRp4534
(dp4535
g67
(dp4536
g75
I5
ssg76
g4530
sg69
(lp4537
g62
(g71
g64
NtRp4538
(dp4539
g67
(dp4540
g75
I4
ssg76
Nsg69
(lp4541
g62
(g78
g64
NtRp4542
(dp4543
g67
(dp4544
sg76
g4538
sg69
(lp4545
g62
(g83
g64
NtRp4546
(dp4547
g67
(dp4548
sg76
g4542
sg69
(lp4549
g62
(g63
g64
NtRp4550
(dp4551
g67
(dp4552
g75
I4
ssg76
g4546
sg69
(lp4553
S'/admin/static/plugin_multiselect/jquery.dimensions.js'
p4554
asbasbasbag62
(g78
g64
NtRp4555
(dp4556
g67
(dp4557
sg76
g4538
sg69
(lp4558
g62
(g83
g64
NtRp4559
(dp4560
g67
(dp4561
sg76
g4555
sg69
(lp4562
g62
(g63
g64
NtRp4563
(dp4564
g67
(dp4565
g75
I4
ssg76
g4559
sg69
(lp4566
S'/admin/static/plugin_multiselect/jquery.multiselect.js'
p4567
asbasbasbag62
(g78
g64
NtRp4568
(dp4569
g67
(dp4570
sg76
g4538
sg69
(lp4571
g62
(g83
g64
NtRp4572
(dp4573
g67
(dp4574
sg76
g4568
sg69
(lp4575
g62
(g63
g64
NtRp4576
(dp4577
g67
(dp4578
g75
I4
ssg76
g4572
sg69
(lp4579
S'/admin/static/plugin_multiselect/jquery.multiselect.css'
p4580
asbasbasbag62
(g78
g64
NtRp4581
(dp4582
g67
(dp4583
sg76
g4538
sg69
(lp4584
g62
(g83
g64
NtRp4585
(dp4586
g67
(dp4587
sg76
g4581
sg69
(lp4588
g62
(g63
g64
NtRp4589
(dp4590
g67
(dp4591
g75
I4
ssg76
g4585
sg69
(lp4592
S'/admin/static/plugin_multiselect/start.js'
p4593
asbasbasbasbasbasbasbag62
(g78
g64
NtRp4594
(dp4595
g67
(dp4596
sg76
g4283
sg69
(lp4597
g62
(g83
g64
NtRp4598
(dp4599
g67
(dp4600
g87
g88
ssg76
g4594
sg69
(lp4601
S'flash'
p4602
asbag62
(g83
g64
NtRp4603
(dp4604
g67
(dp4605
g94
g95
ssg76
g4594
sg69
(lp4606
S':'
asbag62
(g83
g64
NtRp4607
(dp4608
g67
(dp4609
sg76
g4594
sg69
(lp4610
g62
(g63
g64
NtRp4611
(dp4612
g67
(dp4613
g75
I5
ssg76
g4607
sg69
(lp4614
S''
asbasbasbag62
(g78
g64
NtRp4615
(dp4616
g67
(dp4617
sg76
g4283
sg69
(lp4618
g62
(g83
g64
NtRp4619
(dp4620
g67
(dp4621
g87
g88
ssg76
g4615
sg69
(lp4622
S'headers'
p4623
asbag62
(g83
g64
NtRp4624
(dp4625
g67
(dp4626
g94
g95
ssg76
g4615
sg69
(lp4627
S':'
asbag62
(g83
g64
NtRp4628
(dp4629
g67
(dp4630
sg76
g4615
sg69
(lp4631
g62
(g63
g64
NtRp4632
(dp4633
g67
(dp4634
g75
I5
ssg76
g4628
sg69
(lp4635
g62
(g71
g64
NtRp4636
(dp4637
g67
(dp4638
g75
I4
ssg76
Nsg69
(lp4639
g62
(g78
g64
NtRp4640
(dp4641
g67
(dp4642
sg76
g4636
sg69
(lp4643
g62
(g83
g64
NtRp4644
(dp4645
g67
(dp4646
g87
g88
ssg76
g4640
sg69
(lp4647
S'Cache-Control'
p4648
asbag62
(g83
g64
NtRp4649
(dp4650
g67
(dp4651
g94
g95
ssg76
g4640
sg69
(lp4652
S':'
asbag62
(g83
g64
NtRp4653
(dp4654
g67
(dp4655
sg76
g4640
sg69
(lp4656
g62
(g63
g64
NtRp4657
(dp4658
g67
(dp4659
g75
I4
ssg76
g4653
sg69
(lp4660
S'no-store, no-cache, must-revalidate, post-check=0, pre-check=0'
p4661
asbasbasbag62
(g78
g64
NtRp4662
(dp4663
g67
(dp4664
sg76
g4636
sg69
(lp4665
g62
(g83
g64
NtRp4666
(dp4667
g67
(dp4668
g87
g88
ssg76
g4662
sg69
(lp4669
S'Content-Type'
p4670
asbag62
(g83
g64
NtRp4671
(dp4672
g67
(dp4673
g94
g95
ssg76
g4662
sg69
(lp4674
S':'
asbag62
(g83
g64
NtRp4675
(dp4676
g67
(dp4677
sg76
g4662
sg69
(lp4678
g62
(g63
g64
NtRp4679
(dp4680
g67
(dp4681
g75
I4
ssg76
g4675
sg69
(lp4682
S'text/html; charset=utf-8'
p4683
asbasbasbag62
(g78
g64
NtRp4684
(dp4685
g67
(dp4686
sg76
g4636
sg69
(lp4687
g62
(g83
g64
NtRp4688
(dp4689
g67
(dp4690
g87
g88
ssg76
g4684
sg69
(lp4691
S'Expires'
p4692
asbag62
(g83
g64
NtRp4693
(dp4694
g67
(dp4695
g94
g95
ssg76
g4684
sg69
(lp4696
S':'
asbag62
(g83
g64
NtRp4697
(dp4698
g67
(dp4699
sg76
g4684
sg69
(lp4700
g62
(g63
g64
NtRp4701
(dp4702
g67
(dp4703
g75
I4
ssg76
g4697
sg69
(lp4704
S'Sat, 04 Jun 2011 21:04:07 GMT'
p4705
asbasbasbag62
(g78
g64
NtRp4706
(dp4707
g67
(dp4708
sg76
g4636
sg69
(lp4709
g62
(g83
g64
NtRp4710
(dp4711
g67
(dp4712
g87
g88
ssg76
g4706
sg69
(lp4713
S'Pragma'
p4714
asbag62
(g83
g64
NtRp4715
(dp4716
g67
(dp4717
g94
g95
ssg76
g4706
sg69
(lp4718
S':'
asbag62
(g83
g64
NtRp4719
(dp4720
g67
(dp4721
sg76
g4706
sg69
(lp4722
g62
(g63
g64
NtRp4723
(dp4724
g67
(dp4725
g75
I4
ssg76
g4719
sg69
(lp4726
S'no-cache'
p4727
asbasbasbasbasbasbasbag62
(g78
g64
NtRp4728
(dp4729
g67
(dp4730
sg76
g4283
sg69
(lp4731
g62
(g83
g64
NtRp4732
(dp4733
g67
(dp4734
g87
g88
ssg76
g4728
sg69
(lp4735
S'menu'
p4736
asbag62
(g83
g64
NtRp4737
(dp4738
g67
(dp4739
g94
g95
ssg76
g4728
sg69
(lp4740
S':'
asbag62
(g83
g64
NtRp4741
(dp4742
g67
(dp4743
sg76
g4728
sg69
(lp4744
g62
(g63
g64
NtRp4745
(dp4746
g67
(dp4747
g75
I5
ssg76
g4741
sg69
(lp4748
g62
(g71
g64
NtRp4749
(dp4750
g67
(dp4751
g75
I4
ssg76
Nsg69
(lp4752
g62
(g78
g64
NtRp4753
(dp4754
g67
(dp4755
sg76
g4749
sg69
(lp4756
g62
(g83
g64
NtRp4757
(dp4758
g67
(dp4759
sg76
g4753
sg69
(lp4760
g62
(g63
g64
NtRp4761
(dp4762
g67
(dp4763
g75
I4
ssg76
g4757
sg69
(lp4764
g62
(g71
g64
NtRp4765
(dp4766
g67
(dp4767
g75
I3
ssg76
Nsg69
(lp4768
g62
(g78
g64
NtRp4769
(dp4770
g67
(dp4771
sg76
g4765
sg69
(lp4772
g62
(g83
g64
NtRp4773
(dp4774
g67
(dp4775
sg76
g4769
sg69
(lp4776
g62
(g63
g64
NtRp4777
(dp4778
g67
(dp4779
g75
I3
ssg76
g4773
sg69
(lp4780
cgluon.languages
lazyT_unpickle
p4781
(S't\x04\x00\x00\x00site'
tRp4782
asbasbasbag62
(g78
g64
NtRp4783
(dp4784
g67
(dp4785
sg76
g4765
sg69
(lp4786
g62
(g83
g64
NtRp4787
(dp4788
g67
(dp4789
sg76
g4783
sg69
(lp4790
g62
(g63
g64
NtRp4791
(dp4792
g67
(dp4793
g75
I3
ssg76
g4787
sg69
(lp4794
g105
asbasbasbag62
(g78
g64
NtRp4795
(dp4796
g67
(dp4797
sg76
g4765
sg69
(lp4798
g62
(g83
g64
NtRp4799
(dp4800
g67
(dp4801
sg76
g4795
sg69
(lp4802
g62
(g63
g64
NtRp4803
(dp4804
g67
(dp4805
g75
I3
ssg76
g4799
sg69
(lp4806
S'/admin/default/site'
p4807
asbasbasbasbasbasbasbag62
(g78
g64
NtRp4808
(dp4809
g67
(dp4810
sg76
g4749
sg69
(lp4811
g62
(g83
g64
NtRp4812
(dp4813
g67
(dp4814
sg76
g4808
sg69
(lp4815
g62
(g63
g64
NtRp4816
(dp4817
g67
(dp4818
g75
I4
ssg76
g4812
sg69
(lp4819
g62
(g71
g64
NtRp4820
(dp4821
g67
(dp4822
g75
I3
ssg76
Nsg69
(lp4823
g62
(g78
g64
NtRp4824
(dp4825
g67
(dp4826
sg76
g4820
sg69
(lp4827
g62
(g83
g64
NtRp4828
(dp4829
g67
(dp4830
sg76
g4824
sg69
(lp4831
g62
(g63
g64
NtRp4832
(dp4833
g67
(dp4834
g75
I3
ssg76
g4828
sg69
(lp4835
g4781
(S't\x04\x00\x00\x00edit'
tRp4836
asbasbasbag62
(g78
g64
NtRp4837
(dp4838
g67
(dp4839
sg76
g4820
sg69
(lp4840
g62
(g83
g64
NtRp4841
(dp4842
g67
(dp4843
sg76
g4837
sg69
(lp4844
g62
(g63
g64
NtRp4845
(dp4846
g67
(dp4847
g75
I3
ssg76
g4841
sg69
(lp4848
g3110
asbasbasbag62
(g78
g64
NtRp4849
(dp4850
g67
(dp4851
sg76
g4820
sg69
(lp4852
g62
(g83
g64
NtRp4853
(dp4854
g67
(dp4855
sg76
g4849
sg69
(lp4856
g62
(g63
g64
NtRp4857
(dp4858
g67
(dp4859
g75
I3
ssg76
g4853
sg69
(lp4860
S'/admin/default/design/2p_fl'
p4861
asbasbasbasbasbasbasbag62
(g78
g64
NtRp4862
(dp4863
g67
(dp4864
sg76
g4749
sg69
(lp4865
g62
(g83
g64
NtRp4866
(dp4867
g67
(dp4868
sg76
g4862
sg69
(lp4869
g62
(g63
g64
NtRp4870
(dp4871
g67
(dp4872
g75
I4
ssg76
g4866
sg69
(lp4873
g62
(g71
g64
NtRp4874
(dp4875
g67
(dp4876
g75
I3
ssg76
Nsg69
(lp4877
g62
(g78
g64
NtRp4878
(dp4879
g67
(dp4880
sg76
g4874
sg69
(lp4881
g62
(g83
g64
NtRp4882
(dp4883
g67
(dp4884
sg76
g4878
sg69
(lp4885
g62
(g63
g64
NtRp4886
(dp4887
g67
(dp4888
g75
I3
ssg76
g4882
sg69
(lp4889
g4781
(S't\x05\x00\x00\x00about'
tRp4890
asbasbasbag62
(g78
g64
NtRp4891
(dp4892
g67
(dp4893
sg76
g4874
sg69
(lp4894
g62
(g83
g64
NtRp4895
(dp4896
g67
(dp4897
sg76
g4891
sg69
(lp4898
g62
(g63
g64
NtRp4899
(dp4900
g67
(dp4901
g75
I3
ssg76
g4895
sg69
(lp4902
g105
asbasbasbag62
(g78
g64
NtRp4903
(dp4904
g67
(dp4905
sg76
g4874
sg69
(lp4906
g62
(g83
g64
NtRp4907
(dp4908
g67
(dp4909
sg76
g4903
sg69
(lp4910
g62
(g63
g64
NtRp4911
(dp4912
g67
(dp4913
g75
I3
ssg76
g4907
sg69
(lp4914
S'/admin/default/about/2p_fl'
p4915
asbasbasbasbasbasbasbag62
(g78
g64
NtRp4916
(dp4917
g67
(dp4918
sg76
g4749
sg69
(lp4919
g62
(g83
g64
NtRp4920
(dp4921
g67
(dp4922
sg76
g4916
sg69
(lp4923
g62
(g63
g64
NtRp4924
(dp4925
g67
(dp4926
g75
I4
ssg76
g4920
sg69
(lp4927
g62
(g71
g64
NtRp4928
(dp4929
g67
(dp4930
g75
I3
ssg76
Nsg69
(lp4931
g62
(g78
g64
NtRp4932
(dp4933
g67
(dp4934
sg76
g4928
sg69
(lp4935
g62
(g83
g64
NtRp4936
(dp4937
g67
(dp4938
sg76
g4932
sg69
(lp4939
g62
(g63
g64
NtRp4940
(dp4941
g67
(dp4942
g75
I3
ssg76
g4936
sg69
(lp4943
g4781
(S't\x06\x00\x00\x00errors'
tRp4944
asbasbasbag62
(g78
g64
NtRp4945
(dp4946
g67
(dp4947
sg76
g4928
sg69
(lp4948
g62
(g83
g64
NtRp4949
(dp4950
g67
(dp4951
sg76
g4945
sg69
(lp4952
g62
(g63
g64
NtRp4953
(dp4954
g67
(dp4955
g75
I3
ssg76
g4949
sg69
(lp4956
g105
asbasbasbag62
(g78
g64
NtRp4957
(dp4958
g67
(dp4959
sg76
g4928
sg69
(lp4960
g62
(g83
g64
NtRp4961
(dp4962
g67
(dp4963
sg76
g4957
sg69
(lp4964
g62
(g63
g64
NtRp4965
(dp4966
g67
(dp4967
g75
I3
ssg76
g4961
sg69
(lp4968
S'/admin/default/errors/2p_fl'
p4969
asbasbasbasbasbasbasbag62
(g78
g64
NtRp4970
(dp4971
g67
(dp4972
sg76
g4749
sg69
(lp4973
g62
(g83
g64
NtRp4974
(dp4975
g67
(dp4976
sg76
g4970
sg69
(lp4977
g62
(g63
g64
NtRp4978
(dp4979
g67
(dp4980
g75
I4
ssg76
g4974
sg69
(lp4981
g62
(g71
g64
NtRp4982
(dp4983
g67
(dp4984
g75
I3
ssg76
Nsg69
(lp4985
g62
(g78
g64
NtRp4986
(dp4987
g67
(dp4988
sg76
g4982
sg69
(lp4989
g62
(g83
g64
NtRp4990
(dp4991
g67
(dp4992
sg76
g4986
sg69
(lp4993
g62
(g63
g64
NtRp4994
(dp4995
g67
(dp4996
g75
I3
ssg76
g4990
sg69
(lp4997
g4781
(S't\n\x00\x00\x00versioning'
tRp4998
asbasbasbag62
(g78
g64
NtRp4999
(dp5000
g67
(dp5001
sg76
g4982
sg69
(lp5002
g62
(g83
g64
NtRp5003
(dp5004
g67
(dp5005
sg76
g4999
sg69
(lp5006
g62
(g63
g64
NtRp5007
(dp5008
g67
(dp5009
g75
I3
ssg76
g5003
sg69
(lp5010
g105
asbasbasbag62
(g78
g64
NtRp5011
(dp5012
g67
(dp5013
sg76
g4982
sg69
(lp5014
g62
(g83
g64
NtRp5015
(dp5016
g67
(dp5017
sg76
g5011
sg69
(lp5018
g62
(g63
g64
NtRp5019
(dp5020
g67
(dp5021
g75
I3
ssg76
g5015
sg69
(lp5022
S'/admin/mercurial/commit/2p_fl'
p5023
asbasbasbasbasbasbasbag62
(g78
g64
NtRp5024
(dp5025
g67
(dp5026
sg76
g4749
sg69
(lp5027
g62
(g83
g64
NtRp5028
(dp5029
g67
(dp5030
sg76
g5024
sg69
(lp5031
g62
(g63
g64
NtRp5032
(dp5033
g67
(dp5034
g75
I4
ssg76
g5028
sg69
(lp5035
g62
(g71
g64
NtRp5036
(dp5037
g67
(dp5038
g75
I3
ssg76
Nsg69
(lp5039
g62
(g78
g64
NtRp5040
(dp5041
g67
(dp5042
sg76
g5036
sg69
(lp5043
g62
(g83
g64
NtRp5044
(dp5045
g67
(dp5046
sg76
g5040
sg69
(lp5047
g62
(g63
g64
NtRp5048
(dp5049
g67
(dp5050
g75
I3
ssg76
g5044
sg69
(lp5051
g4781
(S't\x06\x00\x00\x00logout'
tRp5052
asbasbasbag62
(g78
g64
NtRp5053
(dp5054
g67
(dp5055
sg76
g5036
sg69
(lp5056
g62
(g83
g64
NtRp5057
(dp5058
g67
(dp5059
sg76
g5053
sg69
(lp5060
g62
(g63
g64
NtRp5061
(dp5062
g67
(dp5063
g75
I3
ssg76
g5057
sg69
(lp5064
g105
asbasbasbag62
(g78
g64
NtRp5065
(dp5066
g67
(dp5067
sg76
g5036
sg69
(lp5068
g62
(g83
g64
NtRp5069
(dp5070
g67
(dp5071
sg76
g5065
sg69
(lp5072
g62
(g63
g64
NtRp5073
(dp5074
g67
(dp5075
g75
I3
ssg76
g5069
sg69
(lp5076
S'/admin/default/logout'
p5077
asbasbasbasbasbasbasbag62
(g78
g64
NtRp5078
(dp5079
g67
(dp5080
sg76
g4749
sg69
(lp5081
g62
(g83
g64
NtRp5082
(dp5083
g67
(dp5084
sg76
g5078
sg69
(lp5085
g62
(g63
g64
NtRp5086
(dp5087
g67
(dp5088
g75
I4
ssg76
g5082
sg69
(lp5089
g62
(g71
g64
NtRp5090
(dp5091
g67
(dp5092
g75
I3
ssg76
Nsg69
(lp5093
g62
(g78
g64
NtRp5094
(dp5095
g67
(dp5096
sg76
g5090
sg69
(lp5097
g62
(g83
g64
NtRp5098
(dp5099
g67
(dp5100
sg76
g5094
sg69
(lp5101
g62
(g63
g64
NtRp5102
(dp5103
g67
(dp5104
g75
I3
ssg76
g5098
sg69
(lp5105
g4781
(S't\x04\x00\x00\x00help'
tRp5106
asbasbasbag62
(g78
g64
NtRp5107
(dp5108
g67
(dp5109
sg76
g5090
sg69
(lp5110
g62
(g83
g64
NtRp5111
(dp5112
g67
(dp5113
sg76
g5107
sg69
(lp5114
g62
(g63
g64
NtRp5115
(dp5116
g67
(dp5117
g75
I3
ssg76
g5111
sg69
(lp5118
g105
asbasbasbag62
(g78
g64
NtRp5119
(dp5120
g67
(dp5121
sg76
g5090
sg69
(lp5122
g62
(g83
g64
NtRp5123
(dp5124
g67
(dp5125
sg76
g5119
sg69
(lp5126
g62
(g63
g64
NtRp5127
(dp5128
g67
(dp5129
g75
I3
ssg76
g5123
sg69
(lp5130
S'/examples/default/index'
p5131
asbasbasbasbasbasbasbasbasbasbasbag62
(g78
g64
NtRp5132
(dp5133
g67
(dp5134
sg76
g4283
sg69
(lp5135
g62
(g83
g64
NtRp5136
(dp5137
g67
(dp5138
g87
g88
ssg76
g5132
sg69
(lp5139
S'meta'
p5140
asbag62
(g83
g64
NtRp5141
(dp5142
g67
(dp5143
g94
g95
ssg76
g5132
sg69
(lp5144
S':'
asbag62
(g83
g64
NtRp5145
(dp5146
g67
(dp5147
sg76
g5132
sg69
(lp5148
g62
(g63
g64
NtRp5149
(dp5150
g67
(dp5151
g75
I5
ssg76
g5145
sg69
(lp5152
g62
(g71
g64
NtRp5153
(dp5154
g67
(dp5155
g75
I4
ssg76
Nsg69
(lp5156
sbasbasbasbag62
(g78
g64
NtRp5157
(dp5158
g67
(dp5159
sg76
g4283
sg69
(lp5160
g62
(g83
g64
NtRp5161
(dp5162
g67
(dp5163
g87
g88
ssg76
g5157
sg69
(lp5164
S'postprocessing'
p5165
asbag62
(g83
g64
NtRp5166
(dp5167
g67
(dp5168
g94
g95
ssg76
g5157
sg69
(lp5169
S':'
asbag62
(g83
g64
NtRp5170
(dp5171
g67
(dp5172
sg76
g5157
sg69
(lp5173
g62
(g63
g64
NtRp5174
(dp5175
g67
(dp5176
g75
I5
ssg76
g5170
sg69
(lp5177
g62
(g71
g64
NtRp5178
(dp5179
g67
(dp5180
g75
I4
ssg76
Nsg69
(lp5181
sbasbasbasbag62
(g78
g64
NtRp5182
(dp5183
g67
(dp5184
sg76
g4283
sg69
(lp5185
g62
(g83
g64
NtRp5186
(dp5187
g67
(dp5188
g87
g88
ssg76
g5182
sg69
(lp5189
S'session_file'
p5190
asbag62
(g83
g64
NtRp5191
(dp5192
g67
(dp5193
g94
g95
ssg76
g5182
sg69
(lp5194
S':'
asbag62
(g83
g64
NtRp5195
(dp5196
g67
(dp5197
sg76
g5182
sg69
(lp5198
g62
(g63
g64
NtRp5199
(dp5200
g67
(dp5201
g75
I5
ssg76
g5195
sg69
(lp5202
S"<open file '/home/nekro/Devel/myprojects/web2py/base/applications/admin/sessions/127.0.0.1-f0480463-6ae5-4636-80aa-a4e04aa98bb5', mode 'rb+' at 0x8a017b0>"
p5203
asbasbasbag62
(g78
g64
NtRp5204
(dp5205
g67
(dp5206
sg76
g4283
sg69
(lp5207
g62
(g83
g64
NtRp5208
(dp5209
g67
(dp5210
g87
g88
ssg76
g5204
sg69
(lp5211
S'session_filename'
p5212
asbag62
(g83
g64
NtRp5213
(dp5214
g67
(dp5215
g94
g95
ssg76
g5204
sg69
(lp5216
S':'
asbag62
(g83
g64
NtRp5217
(dp5218
g67
(dp5219
sg76
g5204
sg69
(lp5220
g62
(g63
g64
NtRp5221
(dp5222
g67
(dp5223
g75
I5
ssg76
g5217
sg69
(lp5224
S'/home/nekro/Devel/myprojects/web2py/base/applications/admin/sessions/127.0.0.1-f0480463-6ae5-4636-80aa-a4e04aa98bb5'
p5225
asbasbasbag62
(g78
g64
NtRp5226
(dp5227
g67
(dp5228
sg76
g4283
sg69
(lp5229
g62
(g83
g64
NtRp5230
(dp5231
g67
(dp5232
g87
g88
ssg76
g5226
sg69
(lp5233
S'session_id'
p5234
asbag62
(g83
g64
NtRp5235
(dp5236
g67
(dp5237
g94
g95
ssg76
g5226
sg69
(lp5238
S':'
asbag62
(g83
g64
NtRp5239
(dp5240
g67
(dp5241
sg76
g5226
sg69
(lp5242
g62
(g63
g64
NtRp5243
(dp5244
g67
(dp5245
g75
I5
ssg76
g5239
sg69
(lp5246
S'127.0.0.1-f0480463-6ae5-4636-80aa-a4e04aa98bb5'
p5247
asbasbasbag62
(g78
g64
NtRp5248
(dp5249
g67
(dp5250
sg76
g4283
sg69
(lp5251
g62
(g83
g64
NtRp5252
(dp5253
g67
(dp5254
g87
g88
ssg76
g5248
sg69
(lp5255
S'session_id_name'
p5256
asbag62
(g83
g64
NtRp5257
(dp5258
g67
(dp5259
g94
g95
ssg76
g5248
sg69
(lp5260
S':'
asbag62
(g83
g64
NtRp5261
(dp5262
g67
(dp5263
sg76
g5248
sg69
(lp5264
g62
(g63
g64
NtRp5265
(dp5266
g67
(dp5267
g75
I5
ssg76
g5261
sg69
(lp5268
g4340
asbasbasbag62
(g78
g64
NtRp5269
(dp5270
g67
(dp5271
sg76
g4283
sg69
(lp5272
g62
(g83
g64
NtRp5273
(dp5274
g67
(dp5275
g87
g88
ssg76
g5269
sg69
(lp5276
S'session_locked'
p5277
asbag62
(g83
g64
NtRp5278
(dp5279
g67
(dp5280
g94
g95
ssg76
g5269
sg69
(lp5281
S':'
asbag62
(g83
g64
NtRp5282
(dp5283
g67
(dp5284
sg76
g5269
sg69
(lp5285
g62
(g63
g64
NtRp5286
(dp5287
g67
(dp5288
g75
I5
ssg76
g5282
sg69
(lp5289
g3110
asbasbasbag62
(g78
g64
NtRp5290
(dp5291
g67
(dp5292
sg76
g4283
sg69
(lp5293
g62
(g83
g64
NtRp5294
(dp5295
g67
(dp5296
g87
g88
ssg76
g5290
sg69
(lp5297
S'session_new'
p5298
asbag62
(g83
g64
NtRp5299
(dp5300
g67
(dp5301
g94
g95
ssg76
g5290
sg69
(lp5302
S':'
asbag62
(g83
g64
NtRp5303
(dp5304
g67
(dp5305
sg76
g5290
sg69
(lp5306
g62
(g63
g64
NtRp5307
(dp5308
g67
(dp5309
g75
I5
ssg76
g5303
sg69
(lp5310
g105
asbasbasbag62
(g78
g64
NtRp5311
(dp5312
g67
(dp5313
sg76
g4283
sg69
(lp5314
g62
(g83
g64
NtRp5315
(dp5316
g67
(dp5317
g87
g88
ssg76
g5311
sg69
(lp5318
S'status'
p5319
asbag62
(g83
g64
NtRp5320
(dp5321
g67
(dp5322
g94
g95
ssg76
g5311
sg69
(lp5323
S':'
asbag62
(g83
g64
NtRp5324
(dp5325
g67
(dp5326
sg76
g5311
sg69
(lp5327
g62
(g63
g64
NtRp5328
(dp5329
g67
(dp5330
g75
I5
ssg76
g5324
sg69
(lp5331
S'200'
p5332
asbasbasbag62
(g78
g64
NtRp5333
(dp5334
g67
(dp5335
sg76
g4283
sg69
(lp5336
g62
(g83
g64
NtRp5337
(dp5338
g67
(dp5339
g87
g88
ssg76
g5333
sg69
(lp5340
S'subtitle'
p5341
asbag62
(g83
g64
NtRp5342
(dp5343
g67
(dp5344
g94
g95
ssg76
g5333
sg69
(lp5345
S':'
asbag62
(g83
g64
NtRp5346
(dp5347
g67
(dp5348
sg76
g5333
sg69
(lp5349
g62
(g63
g64
NtRp5350
(dp5351
g67
(dp5352
g75
I5
ssg76
g5346
sg69
(lp5353
S'admin'
p5354
asbasbasbag62
(g78
g64
NtRp5355
(dp5356
g67
(dp5357
sg76
g4283
sg69
(lp5358
g62
(g83
g64
NtRp5359
(dp5360
g67
(dp5361
g87
g88
ssg76
g5355
sg69
(lp5362
S'title'
p5363
asbag62
(g83
g64
NtRp5364
(dp5365
g67
(dp5366
g94
g95
ssg76
g5355
sg69
(lp5367
S':'
asbag62
(g83
g64
NtRp5368
(dp5369
g67
(dp5370
sg76
g5355
sg69
(lp5371
g62
(g63
g64
NtRp5372
(dp5373
g67
(dp5374
g75
I5
ssg76
g5368
sg69
(lp5375
S'design 2p_fl'
p5376
asbasbasbag62
(g78
g64
NtRp5377
(dp5378
g67
(dp5379
sg76
g4283
sg69
(lp5380
g62
(g83
g64
NtRp5381
(dp5382
g67
(dp5383
g87
g88
ssg76
g5377
sg69
(lp5384
g3413
asbag62
(g83
g64
NtRp5385
(dp5386
g67
(dp5387
g94
g95
ssg76
g5377
sg69
(lp5388
S':'
asbag62
(g83
g64
NtRp5389
(dp5390
g67
(dp5391
sg76
g5377
sg69
(lp5392
g62
(g63
g64
NtRp5393
(dp5394
g67
(dp5395
g75
I5
ssg76
g5389
sg69
(lp5396
g3426
asbasbasbag62
(g78
g64
NtRp5397
(dp5398
g67
(dp5399
sg76
g4283
sg69
(lp5400
g62
(g83
g64
NtRp5401
(dp5402
g67
(dp5403
g87
g88
ssg76
g5397
sg69
(lp5404
S'view'
p5405
asbag62
(g83
g64
NtRp5406
(dp5407
g67
(dp5408
g94
g95
ssg76
g5397
sg69
(lp5409
S':'
asbag62
(g83
g64
NtRp5410
(dp5411
g67
(dp5412
sg76
g5397
sg69
(lp5413
g62
(g63
g64
NtRp5414
(dp5415
g67
(dp5416
g75
I5
ssg76
g5410
sg69
(lp5417
S'default/design.html'
p5418
asbasbasbasbasbsS'locals'
p5419
(dp5420
S'languages'
p5421
S'[]'
p5422
sS'cronfolder'
p5423
S"'/home/nekro/Devel/myprojects/web2py/base/applications/2p_fl/cron'"
p5424
sS'extend'
p5425
g18
sS'views'
p5426
S'[]'
p5427
sS'models'
p5428
S'[]'
p5429
sS'app'
p5430
S"'2p_fl'"
p5431
sS'functions'
p5432
g18
sS'modules'
p5433
S'[]'
p5434
sS'statics'
p5435
S'[]'
p5436
sS'controllers'
p5437
S'[]'
p5438
sS'include'
p5439
g18
sS'defines'
p5440
g18
sssS'traceback'
p5441
S'Traceback (most recent call last):\n  File "/home/nekro/Devel/.virtualenvs/web2py/lib/python2.7/site-packages/gluon/restricted.py", line 181, in restricted\n    exec ccode in environment\n  File "/home/nekro/Devel/myprojects/web2py/base/applications/admin/controllers/default.py", line 1188, in <module>\n  File "/home/nekro/Devel/.virtualenvs/web2py/lib/python2.7/site-packages/gluon/globals.py", line 133, in <lambda>\n    self._caller = lambda f: f()\n  File "/home/nekro/Devel/myprojects/web2py/base/applications/admin/controllers/default.py", line 718, in design\n    if not os.path.exists(cronfolder): os.mkdir(cronfolder)\nOSError: [Errno 20] Not a directory: \'/home/nekro/Devel/myprojects/web2py/base/applications/2p_fl/cron\'\n'
p5442
s.