(dp1
S'output'
p2
S''
sS'layer'
p3
S'/Users/jyr/Desarrollo/personal/MNPP/htdocs/web2py/applications/front/models/db.py'
p4
sS'code'
p5
S"# coding: utf8\n\nif request.env.web2py_runtime_gae:            \n    db = DAL('google:datastore')              \n    session.connect(request, response, db = db)\nelse:  \n    db = DAL('mysql://root:@localhost/web2py')\n"
p6
sS'snapshot'
p7
(dp8
S'exception'
p9
(dp10
S'__hash__'
p11
S"<method-wrapper '__hash__' of exceptions.RuntimeError object>"
p12
sS'__setattr__'
p13
S"<method-wrapper '__setattr__' of exceptions.RuntimeError object>"
p14
sS'__reduce_ex__'
p15
S'<built-in method __reduce_ex__ of exceptions.RuntimeError object>'
p16
sS'__getslice__'
p17
S"<method-wrapper '__getslice__' of exceptions.RuntimeError object>"
p18
sS'__getitem__'
p19
S"<method-wrapper '__getitem__' of exceptions.RuntimeError object>"
p20
sS'__setstate__'
p21
S'<built-in method __setstate__ of exceptions.RuntimeError object>'
p22
sS'args'
p23
S'(\'Failure to connect, tried 5 times:\\n(2003, "Can\\\'t connect to MySQL server on \\\'localhost\\\' (61)")\',)'
p24
sS'__reduce__'
p25
S'<built-in method __reduce__ of exceptions.RuntimeError object>'
p26
sS'__str__'
p27
S"<method-wrapper '__str__' of exceptions.RuntimeError object>"
p28
sS'__format__'
p29
S'<built-in method __format__ of exceptions.RuntimeError object>'
p30
sS'__getattribute__'
p31
S"<method-wrapper '__getattribute__' of exceptions.RuntimeError object>"
p32
sS'__class__'
p33
S"<type 'exceptions.RuntimeError'>"
p34
sS'__unicode__'
p35
S'<built-in method __unicode__ of exceptions.RuntimeError object>'
p36
sS'__delattr__'
p37
S"<method-wrapper '__delattr__' of exceptions.RuntimeError object>"
p38
sS'__subclasshook__'
p39
S'<built-in method __subclasshook__ of type object>'
p40
sS'__repr__'
p41
S"<method-wrapper '__repr__' of exceptions.RuntimeError object>"
p42
sS'__dict__'
p43
S'{}'
p44
sS'__sizeof__'
p45
S'<built-in method __sizeof__ of exceptions.RuntimeError object>'
p46
sS'__doc__'
p47
S"'Unspecified run-time error.'"
p48
sS'__init__'
p49
S"<method-wrapper '__init__' of exceptions.RuntimeError object>"
p50
sS'__new__'
p51
S'<built-in method __new__ of type object>'
p52
ssS'evalue'
p53
S'Failure to connect, tried 5 times:\n(2003, "Can\'t connect to MySQL server on \'localhost\' (61)")'
p54
sS'request'
p55
ccopy_reg
_reconstructor
p56
(cgluon.html
BEAUTIFY
p57
c__builtin__
object
p58
NtRp59
(dp60
S'attributes'
p61
(dp62
sS'components'
p63
(lp64
g56
(cgluon.html
TABLE
p65
g58
NtRp66
(dp67
g61
(dp68
S'level'
p69
I5
ssS'parent'
p70
Nsg63
(lp71
g56
(cgluon.html
TR
p72
g58
NtRp73
(dp74
g61
(dp75
sg70
g66
sg63
(lp76
g56
(cgluon.html
TD
p77
g58
NtRp78
(dp79
g61
(dp80
S'_style'
p81
S'font-weight:bold;'
p82
ssg70
g73
sg63
(lp83
S'ajax'
p84
asbag56
(g77
g58
NtRp85
(dp86
g61
(dp87
S'_valign'
p88
S'top'
p89
ssg70
g73
sg63
(lp90
S':'
asbag56
(g77
g58
NtRp91
(dp92
g61
(dp93
sg70
g73
sg63
(lp94
g56
(g57
g58
NtRp95
(dp96
g61
(dp97
g69
I5
ssg70
g91
sg63
(lp98
S'False'
p99
asbasbasbag56
(g72
g58
NtRp100
(dp101
g61
(dp102
sg70
g66
sg63
(lp103
g56
(g77
g58
NtRp104
(dp105
g61
(dp106
g81
g82
ssg70
g100
sg63
(lp107
S'application'
p108
asbag56
(g77
g58
NtRp109
(dp110
g61
(dp111
g88
g89
ssg70
g100
sg63
(lp112
S':'
asbag56
(g77
g58
NtRp113
(dp114
g61
(dp115
sg70
g100
sg63
(lp116
g56
(g57
g58
NtRp117
(dp118
g61
(dp119
g69
I5
ssg70
g113
sg63
(lp120
S'front'
p121
asbasbasbag56
(g72
g58
NtRp122
(dp123
g61
(dp124
sg70
g66
sg63
(lp125
g56
(g77
g58
NtRp126
(dp127
g61
(dp128
g81
g82
ssg70
g122
sg63
(lp129
g23
asbag56
(g77
g58
NtRp130
(dp131
g61
(dp132
g88
g89
ssg70
g122
sg63
(lp133
S':'
asbag56
(g77
g58
NtRp134
(dp135
g61
(dp136
sg70
g122
sg63
(lp137
g56
(g57
g58
NtRp138
(dp139
g61
(dp140
g69
I5
ssg70
g134
sg63
(lp141
g56
(g65
g58
NtRp142
(dp143
g61
(dp144
g69
I4
ssg70
Nsg63
(lp145
sbasbasbasbag56
(g72
g58
NtRp146
(dp147
g61
(dp148
sg70
g66
sg63
(lp149
g56
(g77
g58
NtRp150
(dp151
g61
(dp152
g81
g82
ssg70
g146
sg63
(lp153
S'body'
p154
asbag56
(g77
g58
NtRp155
(dp156
g61
(dp157
g88
g89
ssg70
g146
sg63
(lp158
S':'
asbag56
(g77
g58
NtRp159
(dp160
g61
(dp161
sg70
g146
sg63
(lp162
g56
(g57
g58
NtRp163
(dp164
g61
(dp165
g69
I5
ssg70
g159
sg63
(lp166
S'<cStringIO.StringO object at 0x101d46998>'
p167
asbasbasbag56
(g72
g58
NtRp168
(dp169
g61
(dp170
sg70
g66
sg63
(lp171
g56
(g77
g58
NtRp172
(dp173
g61
(dp174
g81
g82
ssg70
g168
sg63
(lp175
S'client'
p176
asbag56
(g77
g58
NtRp177
(dp178
g61
(dp179
g88
g89
ssg70
g168
sg63
(lp180
S':'
asbag56
(g77
g58
NtRp181
(dp182
g61
(dp183
sg70
g168
sg63
(lp184
g56
(g57
g58
NtRp185
(dp186
g61
(dp187
g69
I5
ssg70
g181
sg63
(lp188
S'127.0.0.1'
p189
asbasbasbag56
(g72
g58
NtRp190
(dp191
g61
(dp192
sg70
g66
sg63
(lp193
g56
(g77
g58
NtRp194
(dp195
g61
(dp196
g81
g82
ssg70
g190
sg63
(lp197
S'controller'
p198
asbag56
(g77
g58
NtRp199
(dp200
g61
(dp201
g88
g89
ssg70
g190
sg63
(lp202
S':'
asbag56
(g77
g58
NtRp203
(dp204
g61
(dp205
sg70
g190
sg63
(lp206
g56
(g57
g58
NtRp207
(dp208
g61
(dp209
g69
I5
ssg70
g203
sg63
(lp210
S'default'
p211
asbasbasbag56
(g72
g58
NtRp212
(dp213
g61
(dp214
sg70
g66
sg63
(lp215
g56
(g77
g58
NtRp216
(dp217
g61
(dp218
g81
g82
ssg70
g212
sg63
(lp219
S'cookies'
p220
asbag56
(g77
g58
NtRp221
(dp222
g61
(dp223
g88
g89
ssg70
g212
sg63
(lp224
S':'
asbag56
(g77
g58
NtRp225
(dp226
g61
(dp227
sg70
g212
sg63
(lp228
g56
(g57
g58
NtRp229
(dp230
g61
(dp231
g69
I5
ssg70
g225
sg63
(lp232
g56
(g65
g58
NtRp233
(dp234
g61
(dp235
g69
I4
ssg70
Nsg63
(lp236
g56
(g72
g58
NtRp237
(dp238
g61
(dp239
sg70
g233
sg63
(lp240
g56
(g77
g58
NtRp241
(dp242
g61
(dp243
g81
g82
ssg70
g237
sg63
(lp244
S'session_id_front'
p245
asbag56
(g77
g58
NtRp246
(dp247
g61
(dp248
g88
g89
ssg70
g237
sg63
(lp249
S':'
asbag56
(g77
g58
NtRp250
(dp251
g61
(dp252
sg70
g237
sg63
(lp253
g56
(g57
g58
NtRp254
(dp255
g61
(dp256
g69
I4
ssg70
g250
sg63
(lp257
g56
(g65
g58
NtRp258
(dp259
g61
(dp260
g69
I3
ssg70
Nsg63
(lp261
g56
(g72
g58
NtRp262
(dp263
g61
(dp264
sg70
g258
sg63
(lp265
g56
(g77
g58
NtRp266
(dp267
g61
(dp268
g81
g82
ssg70
g262
sg63
(lp269
S'comment'
p270
asbag56
(g77
g58
NtRp271
(dp272
g61
(dp273
g88
g89
ssg70
g262
sg63
(lp274
S':'
asbag56
(g77
g58
NtRp275
(dp276
g61
(dp277
sg70
g262
sg63
(lp278
g56
(g57
g58
NtRp279
(dp280
g61
(dp281
g69
I3
ssg70
g275
sg63
(lp282
S''
asbasbasbag56
(g72
g58
NtRp283
(dp284
g61
(dp285
sg70
g258
sg63
(lp286
g56
(g77
g58
NtRp287
(dp288
g61
(dp289
g81
g82
ssg70
g283
sg63
(lp290
S'domain'
p291
asbag56
(g77
g58
NtRp292
(dp293
g61
(dp294
g88
g89
ssg70
g283
sg63
(lp295
S':'
asbag56
(g77
g58
NtRp296
(dp297
g61
(dp298
sg70
g283
sg63
(lp299
g56
(g57
g58
NtRp300
(dp301
g61
(dp302
g69
I3
ssg70
g296
sg63
(lp303
S''
asbasbasbag56
(g72
g58
NtRp304
(dp305
g61
(dp306
sg70
g258
sg63
(lp307
g56
(g77
g58
NtRp308
(dp309
g61
(dp310
g81
g82
ssg70
g304
sg63
(lp311
S'expires'
p312
asbag56
(g77
g58
NtRp313
(dp314
g61
(dp315
g88
g89
ssg70
g304
sg63
(lp316
S':'
asbag56
(g77
g58
NtRp317
(dp318
g61
(dp319
sg70
g304
sg63
(lp320
g56
(g57
g58
NtRp321
(dp322
g61
(dp323
g69
I3
ssg70
g317
sg63
(lp324
S''
asbasbasbag56
(g72
g58
NtRp325
(dp326
g61
(dp327
sg70
g258
sg63
(lp328
g56
(g77
g58
NtRp329
(dp330
g61
(dp331
g81
g82
ssg70
g325
sg63
(lp332
S'httponly'
p333
asbag56
(g77
g58
NtRp334
(dp335
g61
(dp336
g88
g89
ssg70
g325
sg63
(lp337
S':'
asbag56
(g77
g58
NtRp338
(dp339
g61
(dp340
sg70
g325
sg63
(lp341
g56
(g57
g58
NtRp342
(dp343
g61
(dp344
g69
I3
ssg70
g338
sg63
(lp345
S''
asbasbasbag56
(g72
g58
NtRp346
(dp347
g61
(dp348
sg70
g258
sg63
(lp349
g56
(g77
g58
NtRp350
(dp351
g61
(dp352
g81
g82
ssg70
g346
sg63
(lp353
S'max-age'
p354
asbag56
(g77
g58
NtRp355
(dp356
g61
(dp357
g88
g89
ssg70
g346
sg63
(lp358
S':'
asbag56
(g77
g58
NtRp359
(dp360
g61
(dp361
sg70
g346
sg63
(lp362
g56
(g57
g58
NtRp363
(dp364
g61
(dp365
g69
I3
ssg70
g359
sg63
(lp366
S''
asbasbasbag56
(g72
g58
NtRp367
(dp368
g61
(dp369
sg70
g258
sg63
(lp370
g56
(g77
g58
NtRp371
(dp372
g61
(dp373
g81
g82
ssg70
g367
sg63
(lp374
S'path'
p375
asbag56
(g77
g58
NtRp376
(dp377
g61
(dp378
g88
g89
ssg70
g367
sg63
(lp379
S':'
asbag56
(g77
g58
NtRp380
(dp381
g61
(dp382
sg70
g367
sg63
(lp383
g56
(g57
g58
NtRp384
(dp385
g61
(dp386
g69
I3
ssg70
g380
sg63
(lp387
S''
asbasbasbag56
(g72
g58
NtRp388
(dp389
g61
(dp390
sg70
g258
sg63
(lp391
g56
(g77
g58
NtRp392
(dp393
g61
(dp394
g81
g82
ssg70
g388
sg63
(lp395
S'secure'
p396
asbag56
(g77
g58
NtRp397
(dp398
g61
(dp399
g88
g89
ssg70
g388
sg63
(lp400
S':'
asbag56
(g77
g58
NtRp401
(dp402
g61
(dp403
sg70
g388
sg63
(lp404
g56
(g57
g58
NtRp405
(dp406
g61
(dp407
g69
I3
ssg70
g401
sg63
(lp408
S''
asbasbasbag56
(g72
g58
NtRp409
(dp410
g61
(dp411
sg70
g258
sg63
(lp412
g56
(g77
g58
NtRp413
(dp414
g61
(dp415
g81
g82
ssg70
g409
sg63
(lp416
S'version'
p417
asbag56
(g77
g58
NtRp418
(dp419
g61
(dp420
g88
g89
ssg70
g409
sg63
(lp421
S':'
asbag56
(g77
g58
NtRp422
(dp423
g61
(dp424
sg70
g409
sg63
(lp425
g56
(g57
g58
NtRp426
(dp427
g61
(dp428
g69
I3
ssg70
g422
sg63
(lp429
S''
asbasbasbasbasbasbasbasbasbasbasbag56
(g72
g58
NtRp430
(dp431
g61
(dp432
sg70
g66
sg63
(lp433
g56
(g77
g58
NtRp434
(dp435
g61
(dp436
g81
g82
ssg70
g430
sg63
(lp437
S'env'
p438
asbag56
(g77
g58
NtRp439
(dp440
g61
(dp441
g88
g89
ssg70
g430
sg63
(lp442
S':'
asbag56
(g77
g58
NtRp443
(dp444
g61
(dp445
sg70
g430
sg63
(lp446
g56
(g57
g58
NtRp447
(dp448
g61
(dp449
g69
I5
ssg70
g443
sg63
(lp450
g56
(g65
g58
NtRp451
(dp452
g61
(dp453
g69
I4
ssg70
Nsg63
(lp454
g56
(g72
g58
NtRp455
(dp456
g61
(dp457
sg70
g451
sg63
(lp458
g56
(g77
g58
NtRp459
(dp460
g61
(dp461
g81
g82
ssg70
g455
sg63
(lp462
S'app_folders'
p463
asbag56
(g77
g58
NtRp464
(dp465
g61
(dp466
g88
g89
ssg70
g455
sg63
(lp467
S':'
asbag56
(g77
g58
NtRp468
(dp469
g61
(dp470
sg70
g455
sg63
(lp471
g56
(g57
g58
NtRp472
(dp473
g61
(dp474
g69
I4
ssg70
g468
sg63
(lp475
S"set(['/Users/jyr/Desarrollo/personal/MNPP/htdocs/web2py/applications/front/'])"
p476
asbasbasbag56
(g72
g58
NtRp477
(dp478
g61
(dp479
sg70
g451
sg63
(lp480
g56
(g77
g58
NtRp481
(dp482
g61
(dp483
g81
g82
ssg70
g477
sg63
(lp484
S'applications_parent'
p485
asbag56
(g77
g58
NtRp486
(dp487
g61
(dp488
g88
g89
ssg70
g477
sg63
(lp489
S':'
asbag56
(g77
g58
NtRp490
(dp491
g61
(dp492
sg70
g477
sg63
(lp493
g56
(g57
g58
NtRp494
(dp495
g61
(dp496
g69
I4
ssg70
g490
sg63
(lp497
S'/Users/jyr/Desarrollo/personal/MNPP/htdocs/web2py'
p498
asbasbasbag56
(g72
g58
NtRp499
(dp500
g61
(dp501
sg70
g451
sg63
(lp502
g56
(g77
g58
NtRp503
(dp504
g61
(dp505
g81
g82
ssg70
g499
sg63
(lp506
S'content_length'
p507
asbag56
(g77
g58
NtRp508
(dp509
g61
(dp510
g88
g89
ssg70
g499
sg63
(lp511
S':'
asbag56
(g77
g58
NtRp512
(dp513
g61
(dp514
sg70
g499
sg63
(lp515
g56
(g57
g58
NtRp516
(dp517
g61
(dp518
g69
I4
ssg70
g512
sg63
(lp519
S''
asbasbasbag56
(g72
g58
NtRp520
(dp521
g61
(dp522
sg70
g451
sg63
(lp523
g56
(g77
g58
NtRp524
(dp525
g61
(dp526
g81
g82
ssg70
g520
sg63
(lp527
S'content_type'
p528
asbag56
(g77
g58
NtRp529
(dp530
g61
(dp531
g88
g89
ssg70
g520
sg63
(lp532
S':'
asbag56
(g77
g58
NtRp533
(dp534
g61
(dp535
sg70
g520
sg63
(lp536
g56
(g57
g58
NtRp537
(dp538
g61
(dp539
g69
I4
ssg70
g533
sg63
(lp540
S''
asbasbasbag56
(g72
g58
NtRp541
(dp542
g61
(dp543
sg70
g451
sg63
(lp544
g56
(g77
g58
NtRp545
(dp546
g61
(dp547
g81
g82
ssg70
g541
sg63
(lp548
S'db_sessions'
p549
asbag56
(g77
g58
NtRp550
(dp551
g61
(dp552
g88
g89
ssg70
g541
sg63
(lp553
S':'
asbag56
(g77
g58
NtRp554
(dp555
g61
(dp556
sg70
g541
sg63
(lp557
g56
(g57
g58
NtRp558
(dp559
g61
(dp560
g69
I4
ssg70
g554
sg63
(lp561
S'set([])'
p562
asbasbasbag56
(g72
g58
NtRp563
(dp564
g61
(dp565
sg70
g451
sg63
(lp566
g56
(g77
g58
NtRp567
(dp568
g61
(dp569
g81
g82
ssg70
g563
sg63
(lp570
S'debugging'
p571
asbag56
(g77
g58
NtRp572
(dp573
g61
(dp574
g88
g89
ssg70
g563
sg63
(lp575
S':'
asbag56
(g77
g58
NtRp576
(dp577
g61
(dp578
sg70
g563
sg63
(lp579
g56
(g57
g58
NtRp580
(dp581
g61
(dp582
g69
I4
ssg70
g576
sg63
(lp583
g99
asbasbasbag56
(g72
g58
NtRp584
(dp585
g61
(dp586
sg70
g451
sg63
(lp587
g56
(g77
g58
NtRp588
(dp589
g61
(dp590
g81
g82
ssg70
g584
sg63
(lp591
S'document_root'
p592
asbag56
(g77
g58
NtRp593
(dp594
g61
(dp595
g88
g89
ssg70
g584
sg63
(lp596
S':'
asbag56
(g77
g58
NtRp597
(dp598
g61
(dp599
sg70
g584
sg63
(lp600
g56
(g57
g58
NtRp601
(dp602
g61
(dp603
g69
I4
ssg70
g597
sg63
(lp604
S'/Applications/MNPP/htdocs/web2py'
p605
asbasbasbag56
(g72
g58
NtRp606
(dp607
g61
(dp608
sg70
g451
sg63
(lp609
g56
(g77
g58
NtRp610
(dp611
g61
(dp612
g81
g82
ssg70
g606
sg63
(lp613
S'gluon_parent'
p614
asbag56
(g77
g58
NtRp615
(dp616
g61
(dp617
g88
g89
ssg70
g606
sg63
(lp618
S':'
asbag56
(g77
g58
NtRp619
(dp620
g61
(dp621
sg70
g606
sg63
(lp622
g56
(g57
g58
NtRp623
(dp624
g61
(dp625
g69
I4
ssg70
g619
sg63
(lp626
g498
asbasbasbag56
(g72
g58
NtRp627
(dp628
g61
(dp629
sg70
g451
sg63
(lp630
g56
(g77
g58
NtRp631
(dp632
g61
(dp633
g81
g82
ssg70
g627
sg63
(lp634
S'http_accept'
p635
asbag56
(g77
g58
NtRp636
(dp637
g61
(dp638
g88
g89
ssg70
g627
sg63
(lp639
S':'
asbag56
(g77
g58
NtRp640
(dp641
g61
(dp642
sg70
g627
sg63
(lp643
g56
(g57
g58
NtRp644
(dp645
g61
(dp646
g69
I4
ssg70
g640
sg63
(lp647
S'text/html,application/xhtml+xml,application/xml;q=0.9,*/*;q=0.8'
p648
asbasbasbag56
(g72
g58
NtRp649
(dp650
g61
(dp651
sg70
g451
sg63
(lp652
g56
(g77
g58
NtRp653
(dp654
g61
(dp655
g81
g82
ssg70
g649
sg63
(lp656
S'http_accept_charset'
p657
asbag56
(g77
g58
NtRp658
(dp659
g61
(dp660
g88
g89
ssg70
g649
sg63
(lp661
S':'
asbag56
(g77
g58
NtRp662
(dp663
g61
(dp664
sg70
g649
sg63
(lp665
g56
(g57
g58
NtRp666
(dp667
g61
(dp668
g69
I4
ssg70
g662
sg63
(lp669
S'ISO-8859-1,utf-8;q=0.7,*;q=0.7'
p670
asbasbasbag56
(g72
g58
NtRp671
(dp672
g61
(dp673
sg70
g451
sg63
(lp674
g56
(g77
g58
NtRp675
(dp676
g61
(dp677
g81
g82
ssg70
g671
sg63
(lp678
S'http_accept_encoding'
p679
asbag56
(g77
g58
NtRp680
(dp681
g61
(dp682
g88
g89
ssg70
g671
sg63
(lp683
S':'
asbag56
(g77
g58
NtRp684
(dp685
g61
(dp686
sg70
g671
sg63
(lp687
g56
(g57
g58
NtRp688
(dp689
g61
(dp690
g69
I4
ssg70
g684
sg63
(lp691
S'gzip, deflate'
p692
asbasbasbag56
(g72
g58
NtRp693
(dp694
g61
(dp695
sg70
g451
sg63
(lp696
g56
(g77
g58
NtRp697
(dp698
g61
(dp699
g81
g82
ssg70
g693
sg63
(lp700
S'http_accept_language'
p701
asbag56
(g77
g58
NtRp702
(dp703
g61
(dp704
g88
g89
ssg70
g693
sg63
(lp705
S':'
asbag56
(g77
g58
NtRp706
(dp707
g61
(dp708
sg70
g693
sg63
(lp709
g56
(g57
g58
NtRp710
(dp711
g61
(dp712
g69
I4
ssg70
g706
sg63
(lp713
S'es-es,es;q=0.8,en-us;q=0.5,en;q=0.3'
p714
asbasbasbag56
(g72
g58
NtRp715
(dp716
g61
(dp717
sg70
g451
sg63
(lp718
g56
(g77
g58
NtRp719
(dp720
g61
(dp721
g81
g82
ssg70
g715
sg63
(lp722
S'http_connection'
p723
asbag56
(g77
g58
NtRp724
(dp725
g61
(dp726
g88
g89
ssg70
g715
sg63
(lp727
S':'
asbag56
(g77
g58
NtRp728
(dp729
g61
(dp730
sg70
g715
sg63
(lp731
g56
(g57
g58
NtRp732
(dp733
g61
(dp734
g69
I4
ssg70
g728
sg63
(lp735
S'keep-alive'
p736
asbasbasbag56
(g72
g58
NtRp737
(dp738
g61
(dp739
sg70
g451
sg63
(lp740
g56
(g77
g58
NtRp741
(dp742
g61
(dp743
g81
g82
ssg70
g737
sg63
(lp744
S'http_cookie'
p745
asbag56
(g77
g58
NtRp746
(dp747
g61
(dp748
g88
g89
ssg70
g737
sg63
(lp749
S':'
asbag56
(g77
g58
NtRp750
(dp751
g61
(dp752
sg70
g737
sg63
(lp753
g56
(g57
g58
NtRp754
(dp755
g61
(dp756
g69
I4
ssg70
g750
sg63
(lp757
S'session_id_front=127.0.0.1-f9f1790c-4199-4bcc-9653-c67955173283'
p758
asbasbasbag56
(g72
g58
NtRp759
(dp760
g61
(dp761
sg70
g451
sg63
(lp762
g56
(g77
g58
NtRp763
(dp764
g61
(dp765
g81
g82
ssg70
g759
sg63
(lp766
S'http_host'
p767
asbag56
(g77
g58
NtRp768
(dp769
g61
(dp770
g88
g89
ssg70
g759
sg63
(lp771
S':'
asbag56
(g77
g58
NtRp772
(dp773
g61
(dp774
sg70
g759
sg63
(lp775
g56
(g57
g58
NtRp776
(dp777
g61
(dp778
g69
I4
ssg70
g772
sg63
(lp779
S'web2py.local'
p780
asbasbasbag56
(g72
g58
NtRp781
(dp782
g61
(dp783
sg70
g451
sg63
(lp784
g56
(g77
g58
NtRp785
(dp786
g61
(dp787
g81
g82
ssg70
g781
sg63
(lp788
S'http_keep_alive'
p789
asbag56
(g77
g58
NtRp790
(dp791
g61
(dp792
g88
g89
ssg70
g781
sg63
(lp793
S':'
asbag56
(g77
g58
NtRp794
(dp795
g61
(dp796
sg70
g781
sg63
(lp797
g56
(g57
g58
NtRp798
(dp799
g61
(dp800
g69
I4
ssg70
g794
sg63
(lp801
S'115'
p802
asbasbasbag56
(g72
g58
NtRp803
(dp804
g61
(dp805
sg70
g451
sg63
(lp806
g56
(g77
g58
NtRp807
(dp808
g61
(dp809
g81
g82
ssg70
g803
sg63
(lp810
S'http_user_agent'
p811
asbag56
(g77
g58
NtRp812
(dp813
g61
(dp814
g88
g89
ssg70
g803
sg63
(lp815
S':'
asbag56
(g77
g58
NtRp816
(dp817
g61
(dp818
sg70
g803
sg63
(lp819
g56
(g57
g58
NtRp820
(dp821
g61
(dp822
g69
I4
ssg70
g816
sg63
(lp823
S'Mozilla/5.0 (Macintosh; Intel Mac OS X 10.6; rv:2.0.1) Gecko/20100101 Firefox/4.0.1'
p824
asbasbasbag56
(g72
g58
NtRp825
(dp826
g61
(dp827
sg70
g451
sg63
(lp828
g56
(g77
g58
NtRp829
(dp830
g61
(dp831
g81
g82
ssg70
g825
sg63
(lp832
S'path_info'
p833
asbag56
(g77
g58
NtRp834
(dp835
g61
(dp836
g88
g89
ssg70
g825
sg63
(lp837
S':'
asbag56
(g77
g58
NtRp838
(dp839
g61
(dp840
sg70
g825
sg63
(lp841
g56
(g57
g58
NtRp842
(dp843
g61
(dp844
g69
I4
ssg70
g838
sg63
(lp845
S'/front'
p846
asbasbasbag56
(g72
g58
NtRp847
(dp848
g61
(dp849
sg70
g451
sg63
(lp850
g56
(g77
g58
NtRp851
(dp852
g61
(dp853
g81
g82
ssg70
g847
sg63
(lp854
S'query_string'
p855
asbag56
(g77
g58
NtRp856
(dp857
g61
(dp858
g88
g89
ssg70
g847
sg63
(lp859
S':'
asbag56
(g77
g58
NtRp860
(dp861
g61
(dp862
sg70
g847
sg63
(lp863
g56
(g57
g58
NtRp864
(dp865
g61
(dp866
g69
I4
ssg70
g860
sg63
(lp867
S''
asbasbasbag56
(g72
g58
NtRp868
(dp869
g61
(dp870
sg70
g451
sg63
(lp871
g56
(g77
g58
NtRp872
(dp873
g61
(dp874
g81
g82
ssg70
g868
sg63
(lp875
S'remote_addr'
p876
asbag56
(g77
g58
NtRp877
(dp878
g61
(dp879
g88
g89
ssg70
g868
sg63
(lp880
S':'
asbag56
(g77
g58
NtRp881
(dp882
g61
(dp883
sg70
g868
sg63
(lp884
g56
(g57
g58
NtRp885
(dp886
g61
(dp887
g69
I4
ssg70
g881
sg63
(lp888
g189
asbasbasbag56
(g72
g58
NtRp889
(dp890
g61
(dp891
sg70
g451
sg63
(lp892
g56
(g77
g58
NtRp893
(dp894
g61
(dp895
g81
g82
ssg70
g889
sg63
(lp896
S'remote_port'
p897
asbag56
(g77
g58
NtRp898
(dp899
g61
(dp900
g88
g89
ssg70
g889
sg63
(lp901
S':'
asbag56
(g77
g58
NtRp902
(dp903
g61
(dp904
sg70
g889
sg63
(lp905
g56
(g57
g58
NtRp906
(dp907
g61
(dp908
g69
I4
ssg70
g902
sg63
(lp909
S'59078'
p910
asbasbasbag56
(g72
g58
NtRp911
(dp912
g61
(dp913
sg70
g451
sg63
(lp914
g56
(g77
g58
NtRp915
(dp916
g61
(dp917
g81
g82
ssg70
g911
sg63
(lp918
S'request_method'
p919
asbag56
(g77
g58
NtRp920
(dp921
g61
(dp922
g88
g89
ssg70
g911
sg63
(lp923
S':'
asbag56
(g77
g58
NtRp924
(dp925
g61
(dp926
sg70
g911
sg63
(lp927
g56
(g57
g58
NtRp928
(dp929
g61
(dp930
g69
I4
ssg70
g924
sg63
(lp931
S'GET'
p932
asbasbasbag56
(g72
g58
NtRp933
(dp934
g61
(dp935
sg70
g451
sg63
(lp936
g56
(g77
g58
NtRp937
(dp938
g61
(dp939
g81
g82
ssg70
g933
sg63
(lp940
S'request_uri'
p941
asbag56
(g77
g58
NtRp942
(dp943
g61
(dp944
g88
g89
ssg70
g933
sg63
(lp945
S':'
asbag56
(g77
g58
NtRp946
(dp947
g61
(dp948
sg70
g933
sg63
(lp949
g56
(g57
g58
NtRp950
(dp951
g61
(dp952
g69
I4
ssg70
g946
sg63
(lp953
g846
asbasbasbag56
(g72
g58
NtRp954
(dp955
g61
(dp956
sg70
g451
sg63
(lp957
g56
(g77
g58
NtRp958
(dp959
g61
(dp960
g81
g82
ssg70
g954
sg63
(lp961
S'server_name'
p962
asbag56
(g77
g58
NtRp963
(dp964
g61
(dp965
g88
g89
ssg70
g954
sg63
(lp966
S':'
asbag56
(g77
g58
NtRp967
(dp968
g61
(dp969
sg70
g954
sg63
(lp970
g56
(g57
g58
NtRp971
(dp972
g61
(dp973
g69
I4
ssg70
g967
sg63
(lp974
S'web2py.local'
p975
asbasbasbag56
(g72
g58
NtRp976
(dp977
g61
(dp978
sg70
g451
sg63
(lp979
g56
(g77
g58
NtRp980
(dp981
g61
(dp982
g81
g82
ssg70
g976
sg63
(lp983
S'server_port'
p984
asbag56
(g77
g58
NtRp985
(dp986
g61
(dp987
g88
g89
ssg70
g976
sg63
(lp988
S':'
asbag56
(g77
g58
NtRp989
(dp990
g61
(dp991
sg70
g976
sg63
(lp992
g56
(g57
g58
NtRp993
(dp994
g61
(dp995
g69
I4
ssg70
g989
sg63
(lp996
S'80'
p997
asbasbasbag56
(g72
g58
NtRp998
(dp999
g61
(dp1000
sg70
g451
sg63
(lp1001
g56
(g77
g58
NtRp1002
(dp1003
g61
(dp1004
g81
g82
ssg70
g998
sg63
(lp1005
S'server_protocol'
p1006
asbag56
(g77
g58
NtRp1007
(dp1008
g61
(dp1009
g88
g89
ssg70
g998
sg63
(lp1010
S':'
asbag56
(g77
g58
NtRp1011
(dp1012
g61
(dp1013
sg70
g998
sg63
(lp1014
g56
(g57
g58
NtRp1015
(dp1016
g61
(dp1017
g69
I4
ssg70
g1011
sg63
(lp1018
S'HTTP/1.1'
p1019
asbasbasbag56
(g72
g58
NtRp1020
(dp1021
g61
(dp1022
sg70
g451
sg63
(lp1023
g56
(g77
g58
NtRp1024
(dp1025
g61
(dp1026
g81
g82
ssg70
g1020
sg63
(lp1027
S'uwsgi_module'
p1028
asbag56
(g77
g58
NtRp1029
(dp1030
g61
(dp1031
g88
g89
ssg70
g1020
sg63
(lp1032
S':'
asbag56
(g77
g58
NtRp1033
(dp1034
g61
(dp1035
sg70
g1020
sg63
(lp1036
g56
(g57
g58
NtRp1037
(dp1038
g61
(dp1039
g69
I4
ssg70
g1033
sg63
(lp1040
S'web2py.wsgihandler'
p1041
asbasbasbag56
(g72
g58
NtRp1042
(dp1043
g61
(dp1044
sg70
g451
sg63
(lp1045
g56
(g77
g58
NtRp1046
(dp1047
g61
(dp1048
g81
g82
ssg70
g1042
sg63
(lp1049
S'uwsgi_pyhome'
p1050
asbag56
(g77
g58
NtRp1051
(dp1052
g61
(dp1053
g88
g89
ssg70
g1042
sg63
(lp1054
S':'
asbag56
(g77
g58
NtRp1055
(dp1056
g61
(dp1057
sg70
g1042
sg63
(lp1058
g56
(g57
g58
NtRp1059
(dp1060
g61
(dp1061
g69
I4
ssg70
g1055
sg63
(lp1062
S'/Applications/MNPP/Library/python26'
p1063
asbasbasbag56
(g72
g58
NtRp1064
(dp1065
g61
(dp1066
sg70
g451
sg63
(lp1067
g56
(g77
g58
NtRp1068
(dp1069
g61
(dp1070
g81
g82
ssg70
g1064
sg63
(lp1071
S'uwsgi_version'
p1072
asbag56
(g77
g58
NtRp1073
(dp1074
g61
(dp1075
g88
g89
ssg70
g1064
sg63
(lp1076
S':'
asbag56
(g77
g58
NtRp1077
(dp1078
g61
(dp1079
sg70
g1064
sg63
(lp1080
g56
(g57
g58
NtRp1081
(dp1082
g61
(dp1083
g69
I4
ssg70
g1077
sg63
(lp1084
S'0.9.8'
p1085
asbasbasbag56
(g72
g58
NtRp1086
(dp1087
g61
(dp1088
sg70
g451
sg63
(lp1089
g56
(g77
g58
NtRp1090
(dp1091
g61
(dp1092
g81
g82
ssg70
g1086
sg63
(lp1093
S'web2py_original_uri'
p1094
asbag56
(g77
g58
NtRp1095
(dp1096
g61
(dp1097
g88
g89
ssg70
g1086
sg63
(lp1098
S':'
asbag56
(g77
g58
NtRp1099
(dp1100
g61
(dp1101
sg70
g1086
sg63
(lp1102
g56
(g57
g58
NtRp1103
(dp1104
g61
(dp1105
g69
I4
ssg70
g1099
sg63
(lp1106
g846
asbasbasbag56
(g72
g58
NtRp1107
(dp1108
g61
(dp1109
sg70
g451
sg63
(lp1110
g56
(g77
g58
NtRp1111
(dp1112
g61
(dp1113
g81
g82
ssg70
g1107
sg63
(lp1114
S'web2py_path'
p1115
asbag56
(g77
g58
NtRp1116
(dp1117
g61
(dp1118
g88
g89
ssg70
g1107
sg63
(lp1119
S':'
asbag56
(g77
g58
NtRp1120
(dp1121
g61
(dp1122
sg70
g1107
sg63
(lp1123
g56
(g57
g58
NtRp1124
(dp1125
g61
(dp1126
g69
I4
ssg70
g1120
sg63
(lp1127
g498
asbasbasbag56
(g72
g58
NtRp1128
(dp1129
g61
(dp1130
sg70
g451
sg63
(lp1131
g56
(g77
g58
NtRp1132
(dp1133
g61
(dp1134
g81
g82
ssg70
g1128
sg63
(lp1135
S'web2py_version'
p1136
asbag56
(g77
g58
NtRp1137
(dp1138
g61
(dp1139
g88
g89
ssg70
g1128
sg63
(lp1140
S':'
asbag56
(g77
g58
NtRp1141
(dp1142
g61
(dp1143
sg70
g1128
sg63
(lp1144
g56
(g57
g58
NtRp1145
(dp1146
g61
(dp1147
g69
I4
ssg70
g1141
sg63
(lp1148
S'Version 1.95.1 (2011-04-25 08:57:54)\n'
p1149
asbasbasbag56
(g72
g58
NtRp1150
(dp1151
g61
(dp1152
sg70
g451
sg63
(lp1153
g56
(g77
g58
NtRp1154
(dp1155
g61
(dp1156
g81
g82
ssg70
g1150
sg63
(lp1157
S'wsgi_errors'
p1158
asbag56
(g77
g58
NtRp1159
(dp1160
g61
(dp1161
g88
g89
ssg70
g1150
sg63
(lp1162
S':'
asbag56
(g77
g58
NtRp1163
(dp1164
g61
(dp1165
sg70
g1150
sg63
(lp1166
g56
(g57
g58
NtRp1167
(dp1168
g61
(dp1169
g69
I4
ssg70
g1163
sg63
(lp1170
S"<open file 'wsgi_input', mode 'w' at 0x101bcd270>"
p1171
asbasbasbag56
(g72
g58
NtRp1172
(dp1173
g61
(dp1174
sg70
g451
sg63
(lp1175
g56
(g77
g58
NtRp1176
(dp1177
g61
(dp1178
g81
g82
ssg70
g1172
sg63
(lp1179
S'wsgi_file_wrapper'
p1180
asbag56
(g77
g58
NtRp1181
(dp1182
g61
(dp1183
g88
g89
ssg70
g1172
sg63
(lp1184
S':'
asbag56
(g77
g58
NtRp1185
(dp1186
g61
(dp1187
sg70
g1172
sg63
(lp1188
g56
(g57
g58
NtRp1189
(dp1190
g61
(dp1191
g69
I4
ssg70
g1185
sg63
(lp1192
S'<built-in function uwsgi_sendfile>'
p1193
asbasbasbag56
(g72
g58
NtRp1194
(dp1195
g61
(dp1196
sg70
g451
sg63
(lp1197
g56
(g77
g58
NtRp1198
(dp1199
g61
(dp1200
g81
g82
ssg70
g1194
sg63
(lp1201
S'wsgi_input'
p1202
asbag56
(g77
g58
NtRp1203
(dp1204
g61
(dp1205
g88
g89
ssg70
g1194
sg63
(lp1206
S':'
asbag56
(g77
g58
NtRp1207
(dp1208
g61
(dp1209
sg70
g1194
sg63
(lp1210
g56
(g57
g58
NtRp1211
(dp1212
g61
(dp1213
g69
I4
ssg70
g1207
sg63
(lp1214
S'<uwsgi._Input object at 0x100884800>'
p1215
asbasbasbag56
(g72
g58
NtRp1216
(dp1217
g61
(dp1218
sg70
g451
sg63
(lp1219
g56
(g77
g58
NtRp1220
(dp1221
g61
(dp1222
g81
g82
ssg70
g1216
sg63
(lp1223
S'wsgi_multiprocess'
p1224
asbag56
(g77
g58
NtRp1225
(dp1226
g61
(dp1227
g88
g89
ssg70
g1216
sg63
(lp1228
S':'
asbag56
(g77
g58
NtRp1229
(dp1230
g61
(dp1231
sg70
g1216
sg63
(lp1232
g56
(g57
g58
NtRp1233
(dp1234
g61
(dp1235
g69
I4
ssg70
g1229
sg63
(lp1236
g99
asbasbasbag56
(g72
g58
NtRp1237
(dp1238
g61
(dp1239
sg70
g451
sg63
(lp1240
g56
(g77
g58
NtRp1241
(dp1242
g61
(dp1243
g81
g82
ssg70
g1237
sg63
(lp1244
S'wsgi_multithread'
p1245
asbag56
(g77
g58
NtRp1246
(dp1247
g61
(dp1248
g88
g89
ssg70
g1237
sg63
(lp1249
S':'
asbag56
(g77
g58
NtRp1250
(dp1251
g61
(dp1252
sg70
g1237
sg63
(lp1253
g56
(g57
g58
NtRp1254
(dp1255
g61
(dp1256
g69
I4
ssg70
g1250
sg63
(lp1257
g99
asbasbasbag56
(g72
g58
NtRp1258
(dp1259
g61
(dp1260
sg70
g451
sg63
(lp1261
g56
(g77
g58
NtRp1262
(dp1263
g61
(dp1264
g81
g82
ssg70
g1258
sg63
(lp1265
S'wsgi_run_once'
p1266
asbag56
(g77
g58
NtRp1267
(dp1268
g61
(dp1269
g88
g89
ssg70
g1258
sg63
(lp1270
S':'
asbag56
(g77
g58
NtRp1271
(dp1272
g61
(dp1273
sg70
g1258
sg63
(lp1274
g56
(g57
g58
NtRp1275
(dp1276
g61
(dp1277
g69
I4
ssg70
g1271
sg63
(lp1278
g99
asbasbasbag56
(g72
g58
NtRp1279
(dp1280
g61
(dp1281
sg70
g451
sg63
(lp1282
g56
(g77
g58
NtRp1283
(dp1284
g61
(dp1285
g81
g82
ssg70
g1279
sg63
(lp1286
S'wsgi_url_scheme'
p1287
asbag56
(g77
g58
NtRp1288
(dp1289
g61
(dp1290
g88
g89
ssg70
g1279
sg63
(lp1291
S':'
asbag56
(g77
g58
NtRp1292
(dp1293
g61
(dp1294
sg70
g1279
sg63
(lp1295
g56
(g57
g58
NtRp1296
(dp1297
g61
(dp1298
g69
I4
ssg70
g1292
sg63
(lp1299
S'http'
p1300
asbasbasbag56
(g72
g58
NtRp1301
(dp1302
g61
(dp1303
sg70
g451
sg63
(lp1304
g56
(g77
g58
NtRp1305
(dp1306
g61
(dp1307
g81
g82
ssg70
g1301
sg63
(lp1308
S'wsgi_version'
p1309
asbag56
(g77
g58
NtRp1310
(dp1311
g61
(dp1312
g88
g89
ssg70
g1301
sg63
(lp1313
S':'
asbag56
(g77
g58
NtRp1314
(dp1315
g61
(dp1316
sg70
g1301
sg63
(lp1317
g56
(g57
g58
NtRp1318
(dp1319
g61
(dp1320
g69
I4
ssg70
g1314
sg63
(lp1321
g56
(g65
g58
NtRp1322
(dp1323
g61
(dp1324
g69
I3
ssg70
Nsg63
(lp1325
g56
(g72
g58
NtRp1326
(dp1327
g61
(dp1328
sg70
g1322
sg63
(lp1329
g56
(g77
g58
NtRp1330
(dp1331
g61
(dp1332
sg70
g1326
sg63
(lp1333
g56
(g57
g58
NtRp1334
(dp1335
g61
(dp1336
g69
I3
ssg70
g1330
sg63
(lp1337
S'1'
asbasbasbag56
(g72
g58
NtRp1338
(dp1339
g61
(dp1340
sg70
g1322
sg63
(lp1341
g56
(g77
g58
NtRp1342
(dp1343
g61
(dp1344
sg70
g1338
sg63
(lp1345
g56
(g57
g58
NtRp1346
(dp1347
g61
(dp1348
g69
I3
ssg70
g1342
sg63
(lp1349
S'0'
asbasbasbasbasbasbasbasbasbasbasbag56
(g72
g58
NtRp1350
(dp1351
g61
(dp1352
sg70
g66
sg63
(lp1353
g56
(g77
g58
NtRp1354
(dp1355
g61
(dp1356
g81
g82
ssg70
g1350
sg63
(lp1357
S'extension'
p1358
asbag56
(g77
g58
NtRp1359
(dp1360
g61
(dp1361
g88
g89
ssg70
g1350
sg63
(lp1362
S':'
asbag56
(g77
g58
NtRp1363
(dp1364
g61
(dp1365
sg70
g1350
sg63
(lp1366
g56
(g57
g58
NtRp1367
(dp1368
g61
(dp1369
g69
I5
ssg70
g1363
sg63
(lp1370
S'html'
p1371
asbasbasbag56
(g72
g58
NtRp1372
(dp1373
g61
(dp1374
sg70
g66
sg63
(lp1375
g56
(g77
g58
NtRp1376
(dp1377
g61
(dp1378
g81
g82
ssg70
g1372
sg63
(lp1379
S'folder'
p1380
asbag56
(g77
g58
NtRp1381
(dp1382
g61
(dp1383
g88
g89
ssg70
g1372
sg63
(lp1384
S':'
asbag56
(g77
g58
NtRp1385
(dp1386
g61
(dp1387
sg70
g1372
sg63
(lp1388
g56
(g57
g58
NtRp1389
(dp1390
g61
(dp1391
g69
I5
ssg70
g1385
sg63
(lp1392
S'/Users/jyr/Desarrollo/personal/MNPP/htdocs/web2py/applications/front/'
p1393
asbasbasbag56
(g72
g58
NtRp1394
(dp1395
g61
(dp1396
sg70
g66
sg63
(lp1397
g56
(g77
g58
NtRp1398
(dp1399
g61
(dp1400
g81
g82
ssg70
g1394
sg63
(lp1401
S'function'
p1402
asbag56
(g77
g58
NtRp1403
(dp1404
g61
(dp1405
g88
g89
ssg70
g1394
sg63
(lp1406
S':'
asbag56
(g77
g58
NtRp1407
(dp1408
g61
(dp1409
sg70
g1394
sg63
(lp1410
g56
(g57
g58
NtRp1411
(dp1412
g61
(dp1413
g69
I5
ssg70
g1407
sg63
(lp1414
S'index'
p1415
asbasbasbag56
(g72
g58
NtRp1416
(dp1417
g61
(dp1418
sg70
g66
sg63
(lp1419
g56
(g77
g58
NtRp1420
(dp1421
g61
(dp1422
g81
g82
ssg70
g1416
sg63
(lp1423
S'get_vars'
p1424
asbag56
(g77
g58
NtRp1425
(dp1426
g61
(dp1427
g88
g89
ssg70
g1416
sg63
(lp1428
S':'
asbag56
(g77
g58
NtRp1429
(dp1430
g61
(dp1431
sg70
g1416
sg63
(lp1432
g56
(g57
g58
NtRp1433
(dp1434
g61
(dp1435
g69
I5
ssg70
g1429
sg63
(lp1436
g56
(g65
g58
NtRp1437
(dp1438
g61
(dp1439
g69
I4
ssg70
Nsg63
(lp1440
sbasbasbasbag56
(g72
g58
NtRp1441
(dp1442
g61
(dp1443
sg70
g66
sg63
(lp1444
g56
(g77
g58
NtRp1445
(dp1446
g61
(dp1447
g81
g82
ssg70
g1441
sg63
(lp1448
S'is_https'
p1449
asbag56
(g77
g58
NtRp1450
(dp1451
g61
(dp1452
g88
g89
ssg70
g1441
sg63
(lp1453
S':'
asbag56
(g77
g58
NtRp1454
(dp1455
g61
(dp1456
sg70
g1441
sg63
(lp1457
g56
(g57
g58
NtRp1458
(dp1459
g61
(dp1460
g69
I5
ssg70
g1454
sg63
(lp1461
g99
asbasbasbag56
(g72
g58
NtRp1462
(dp1463
g61
(dp1464
sg70
g66
sg63
(lp1465
g56
(g77
g58
NtRp1466
(dp1467
g61
(dp1468
g81
g82
ssg70
g1462
sg63
(lp1469
S'is_local'
p1470
asbag56
(g77
g58
NtRp1471
(dp1472
g61
(dp1473
g88
g89
ssg70
g1462
sg63
(lp1474
S':'
asbag56
(g77
g58
NtRp1475
(dp1476
g61
(dp1477
sg70
g1462
sg63
(lp1478
g56
(g57
g58
NtRp1479
(dp1480
g61
(dp1481
g69
I5
ssg70
g1475
sg63
(lp1482
S'True'
p1483
asbasbasbag56
(g72
g58
NtRp1484
(dp1485
g61
(dp1486
sg70
g66
sg63
(lp1487
g56
(g77
g58
NtRp1488
(dp1489
g61
(dp1490
g81
g82
ssg70
g1484
sg63
(lp1491
S'is_restful'
p1492
asbag56
(g77
g58
NtRp1493
(dp1494
g61
(dp1495
g88
g89
ssg70
g1484
sg63
(lp1496
S':'
asbag56
(g77
g58
NtRp1497
(dp1498
g61
(dp1499
sg70
g1484
sg63
(lp1500
g56
(g57
g58
NtRp1501
(dp1502
g61
(dp1503
g69
I5
ssg70
g1497
sg63
(lp1504
g99
asbasbasbag56
(g72
g58
NtRp1505
(dp1506
g61
(dp1507
sg70
g66
sg63
(lp1508
g56
(g77
g58
NtRp1509
(dp1510
g61
(dp1511
g81
g82
ssg70
g1505
sg63
(lp1512
S'now'
p1513
asbag56
(g77
g58
NtRp1514
(dp1515
g61
(dp1516
g88
g89
ssg70
g1505
sg63
(lp1517
S':'
asbag56
(g77
g58
NtRp1518
(dp1519
g61
(dp1520
sg70
g1505
sg63
(lp1521
g56
(g57
g58
NtRp1522
(dp1523
g61
(dp1524
g69
I5
ssg70
g1518
sg63
(lp1525
S'datetime.datetime(2011, 6, 9, 19, 13, 45, 197864)'
p1526
asbasbasbag56
(g72
g58
NtRp1527
(dp1528
g61
(dp1529
sg70
g66
sg63
(lp1530
g56
(g77
g58
NtRp1531
(dp1532
g61
(dp1533
g81
g82
ssg70
g1527
sg63
(lp1534
S'post_vars'
p1535
asbag56
(g77
g58
NtRp1536
(dp1537
g61
(dp1538
g88
g89
ssg70
g1527
sg63
(lp1539
S':'
asbag56
(g77
g58
NtRp1540
(dp1541
g61
(dp1542
sg70
g1527
sg63
(lp1543
g56
(g57
g58
NtRp1544
(dp1545
g61
(dp1546
g69
I5
ssg70
g1540
sg63
(lp1547
g56
(g65
g58
NtRp1548
(dp1549
g61
(dp1550
g69
I4
ssg70
Nsg63
(lp1551
sbasbasbasbag56
(g72
g58
NtRp1552
(dp1553
g61
(dp1554
sg70
g66
sg63
(lp1555
g56
(g77
g58
NtRp1556
(dp1557
g61
(dp1558
g81
g82
ssg70
g1552
sg63
(lp1559
S'url'
p1560
asbag56
(g77
g58
NtRp1561
(dp1562
g61
(dp1563
g88
g89
ssg70
g1552
sg63
(lp1564
S':'
asbag56
(g77
g58
NtRp1565
(dp1566
g61
(dp1567
sg70
g1552
sg63
(lp1568
g56
(g57
g58
NtRp1569
(dp1570
g61
(dp1571
g69
I5
ssg70
g1565
sg63
(lp1572
S'/front/default/index'
p1573
asbasbasbag56
(g72
g58
NtRp1574
(dp1575
g61
(dp1576
sg70
g66
sg63
(lp1577
g56
(g77
g58
NtRp1578
(dp1579
g61
(dp1580
g81
g82
ssg70
g1574
sg63
(lp1581
S'uuid'
p1582
asbag56
(g77
g58
NtRp1583
(dp1584
g61
(dp1585
g88
g89
ssg70
g1574
sg63
(lp1586
S':'
asbag56
(g77
g58
NtRp1587
(dp1588
g61
(dp1589
sg70
g1574
sg63
(lp1590
g56
(g57
g58
NtRp1591
(dp1592
g61
(dp1593
g69
I5
ssg70
g1587
sg63
(lp1594
S'front/127.0.0.1.2011-06-09.19-13-45.5a03b802-3bcc-49c2-97da-3fa577035f7f'
p1595
asbasbasbag56
(g72
g58
NtRp1596
(dp1597
g61
(dp1598
sg70
g66
sg63
(lp1599
g56
(g77
g58
NtRp1600
(dp1601
g61
(dp1602
g81
g82
ssg70
g1596
sg63
(lp1603
S'vars'
p1604
asbag56
(g77
g58
NtRp1605
(dp1606
g61
(dp1607
g88
g89
ssg70
g1596
sg63
(lp1608
S':'
asbag56
(g77
g58
NtRp1609
(dp1610
g61
(dp1611
sg70
g1596
sg63
(lp1612
g56
(g57
g58
NtRp1613
(dp1614
g61
(dp1615
g69
I5
ssg70
g1609
sg63
(lp1616
g56
(g65
g58
NtRp1617
(dp1618
g61
(dp1619
g69
I4
ssg70
Nsg63
(lp1620
sbasbasbasbag56
(g72
g58
NtRp1621
(dp1622
g61
(dp1623
sg70
g66
sg63
(lp1624
g56
(g77
g58
NtRp1625
(dp1626
g61
(dp1627
g81
g82
ssg70
g1621
sg63
(lp1628
S'wsgi'
p1629
asbag56
(g77
g58
NtRp1630
(dp1631
g61
(dp1632
g88
g89
ssg70
g1621
sg63
(lp1633
S':'
asbag56
(g77
g58
NtRp1634
(dp1635
g61
(dp1636
sg70
g1621
sg63
(lp1637
g56
(g57
g58
NtRp1638
(dp1639
g61
(dp1640
g69
I5
ssg70
g1634
sg63
(lp1641
g56
(g65
g58
NtRp1642
(dp1643
g61
(dp1644
g69
I4
ssg70
Nsg63
(lp1645
g56
(g72
g58
NtRp1646
(dp1647
g61
(dp1648
sg70
g1642
sg63
(lp1649
g56
(g77
g58
NtRp1650
(dp1651
g61
(dp1652
g81
g82
ssg70
g1646
sg63
(lp1653
S'environ'
p1654
asbag56
(g77
g58
NtRp1655
(dp1656
g61
(dp1657
g88
g89
ssg70
g1646
sg63
(lp1658
S':'
asbag56
(g77
g58
NtRp1659
(dp1660
g61
(dp1661
sg70
g1646
sg63
(lp1662
g56
(g57
g58
NtRp1663
(dp1664
g61
(dp1665
g69
I4
ssg70
g1659
sg63
(lp1666
g56
(g65
g58
NtRp1667
(dp1668
g61
(dp1669
g69
I3
ssg70
Nsg63
(lp1670
g56
(g72
g58
NtRp1671
(dp1672
g61
(dp1673
sg70
g1667
sg63
(lp1674
g56
(g77
g58
NtRp1675
(dp1676
g61
(dp1677
g81
g82
ssg70
g1671
sg63
(lp1678
S'CONTENT_LENGTH'
p1679
asbag56
(g77
g58
NtRp1680
(dp1681
g61
(dp1682
g88
g89
ssg70
g1671
sg63
(lp1683
S':'
asbag56
(g77
g58
NtRp1684
(dp1685
g61
(dp1686
sg70
g1671
sg63
(lp1687
g56
(g57
g58
NtRp1688
(dp1689
g61
(dp1690
g69
I3
ssg70
g1684
sg63
(lp1691
S''
asbasbasbag56
(g72
g58
NtRp1692
(dp1693
g61
(dp1694
sg70
g1667
sg63
(lp1695
g56
(g77
g58
NtRp1696
(dp1697
g61
(dp1698
g81
g82
ssg70
g1692
sg63
(lp1699
S'CONTENT_TYPE'
p1700
asbag56
(g77
g58
NtRp1701
(dp1702
g61
(dp1703
g88
g89
ssg70
g1692
sg63
(lp1704
S':'
asbag56
(g77
g58
NtRp1705
(dp1706
g61
(dp1707
sg70
g1692
sg63
(lp1708
g56
(g57
g58
NtRp1709
(dp1710
g61
(dp1711
g69
I3
ssg70
g1705
sg63
(lp1712
S''
asbasbasbag56
(g72
g58
NtRp1713
(dp1714
g61
(dp1715
sg70
g1667
sg63
(lp1716
g56
(g77
g58
NtRp1717
(dp1718
g61
(dp1719
g81
g82
ssg70
g1713
sg63
(lp1720
S'DOCUMENT_ROOT'
p1721
asbag56
(g77
g58
NtRp1722
(dp1723
g61
(dp1724
g88
g89
ssg70
g1713
sg63
(lp1725
S':'
asbag56
(g77
g58
NtRp1726
(dp1727
g61
(dp1728
sg70
g1713
sg63
(lp1729
g56
(g57
g58
NtRp1730
(dp1731
g61
(dp1732
g69
I3
ssg70
g1726
sg63
(lp1733
g605
asbasbasbag56
(g72
g58
NtRp1734
(dp1735
g61
(dp1736
sg70
g1667
sg63
(lp1737
g56
(g77
g58
NtRp1738
(dp1739
g61
(dp1740
g81
g82
ssg70
g1734
sg63
(lp1741
S'HTTP_ACCEPT'
p1742
asbag56
(g77
g58
NtRp1743
(dp1744
g61
(dp1745
g88
g89
ssg70
g1734
sg63
(lp1746
S':'
asbag56
(g77
g58
NtRp1747
(dp1748
g61
(dp1749
sg70
g1734
sg63
(lp1750
g56
(g57
g58
NtRp1751
(dp1752
g61
(dp1753
g69
I3
ssg70
g1747
sg63
(lp1754
g648
asbasbasbag56
(g72
g58
NtRp1755
(dp1756
g61
(dp1757
sg70
g1667
sg63
(lp1758
g56
(g77
g58
NtRp1759
(dp1760
g61
(dp1761
g81
g82
ssg70
g1755
sg63
(lp1762
S'HTTP_ACCEPT_CHARSET'
p1763
asbag56
(g77
g58
NtRp1764
(dp1765
g61
(dp1766
g88
g89
ssg70
g1755
sg63
(lp1767
S':'
asbag56
(g77
g58
NtRp1768
(dp1769
g61
(dp1770
sg70
g1755
sg63
(lp1771
g56
(g57
g58
NtRp1772
(dp1773
g61
(dp1774
g69
I3
ssg70
g1768
sg63
(lp1775
g670
asbasbasbag56
(g72
g58
NtRp1776
(dp1777
g61
(dp1778
sg70
g1667
sg63
(lp1779
g56
(g77
g58
NtRp1780
(dp1781
g61
(dp1782
g81
g82
ssg70
g1776
sg63
(lp1783
S'HTTP_ACCEPT_ENCODING'
p1784
asbag56
(g77
g58
NtRp1785
(dp1786
g61
(dp1787
g88
g89
ssg70
g1776
sg63
(lp1788
S':'
asbag56
(g77
g58
NtRp1789
(dp1790
g61
(dp1791
sg70
g1776
sg63
(lp1792
g56
(g57
g58
NtRp1793
(dp1794
g61
(dp1795
g69
I3
ssg70
g1789
sg63
(lp1796
g692
asbasbasbag56
(g72
g58
NtRp1797
(dp1798
g61
(dp1799
sg70
g1667
sg63
(lp1800
g56
(g77
g58
NtRp1801
(dp1802
g61
(dp1803
g81
g82
ssg70
g1797
sg63
(lp1804
S'HTTP_ACCEPT_LANGUAGE'
p1805
asbag56
(g77
g58
NtRp1806
(dp1807
g61
(dp1808
g88
g89
ssg70
g1797
sg63
(lp1809
S':'
asbag56
(g77
g58
NtRp1810
(dp1811
g61
(dp1812
sg70
g1797
sg63
(lp1813
g56
(g57
g58
NtRp1814
(dp1815
g61
(dp1816
g69
I3
ssg70
g1810
sg63
(lp1817
g714
asbasbasbag56
(g72
g58
NtRp1818
(dp1819
g61
(dp1820
sg70
g1667
sg63
(lp1821
g56
(g77
g58
NtRp1822
(dp1823
g61
(dp1824
g81
g82
ssg70
g1818
sg63
(lp1825
S'HTTP_CONNECTION'
p1826
asbag56
(g77
g58
NtRp1827
(dp1828
g61
(dp1829
g88
g89
ssg70
g1818
sg63
(lp1830
S':'
asbag56
(g77
g58
NtRp1831
(dp1832
g61
(dp1833
sg70
g1818
sg63
(lp1834
g56
(g57
g58
NtRp1835
(dp1836
g61
(dp1837
g69
I3
ssg70
g1831
sg63
(lp1838
g736
asbasbasbag56
(g72
g58
NtRp1839
(dp1840
g61
(dp1841
sg70
g1667
sg63
(lp1842
g56
(g77
g58
NtRp1843
(dp1844
g61
(dp1845
g81
g82
ssg70
g1839
sg63
(lp1846
S'HTTP_COOKIE'
p1847
asbag56
(g77
g58
NtRp1848
(dp1849
g61
(dp1850
g88
g89
ssg70
g1839
sg63
(lp1851
S':'
asbag56
(g77
g58
NtRp1852
(dp1853
g61
(dp1854
sg70
g1839
sg63
(lp1855
g56
(g57
g58
NtRp1856
(dp1857
g61
(dp1858
g69
I3
ssg70
g1852
sg63
(lp1859
g758
asbasbasbag56
(g72
g58
NtRp1860
(dp1861
g61
(dp1862
sg70
g1667
sg63
(lp1863
g56
(g77
g58
NtRp1864
(dp1865
g61
(dp1866
g81
g82
ssg70
g1860
sg63
(lp1867
S'HTTP_HOST'
p1868
asbag56
(g77
g58
NtRp1869
(dp1870
g61
(dp1871
g88
g89
ssg70
g1860
sg63
(lp1872
S':'
asbag56
(g77
g58
NtRp1873
(dp1874
g61
(dp1875
sg70
g1860
sg63
(lp1876
g56
(g57
g58
NtRp1877
(dp1878
g61
(dp1879
g69
I3
ssg70
g1873
sg63
(lp1880
g780
asbasbasbag56
(g72
g58
NtRp1881
(dp1882
g61
(dp1883
sg70
g1667
sg63
(lp1884
g56
(g77
g58
NtRp1885
(dp1886
g61
(dp1887
g81
g82
ssg70
g1881
sg63
(lp1888
S'HTTP_KEEP_ALIVE'
p1889
asbag56
(g77
g58
NtRp1890
(dp1891
g61
(dp1892
g88
g89
ssg70
g1881
sg63
(lp1893
S':'
asbag56
(g77
g58
NtRp1894
(dp1895
g61
(dp1896
sg70
g1881
sg63
(lp1897
g56
(g57
g58
NtRp1898
(dp1899
g61
(dp1900
g69
I3
ssg70
g1894
sg63
(lp1901
g802
asbasbasbag56
(g72
g58
NtRp1902
(dp1903
g61
(dp1904
sg70
g1667
sg63
(lp1905
g56
(g77
g58
NtRp1906
(dp1907
g61
(dp1908
g81
g82
ssg70
g1902
sg63
(lp1909
S'HTTP_USER_AGENT'
p1910
asbag56
(g77
g58
NtRp1911
(dp1912
g61
(dp1913
g88
g89
ssg70
g1902
sg63
(lp1914
S':'
asbag56
(g77
g58
NtRp1915
(dp1916
g61
(dp1917
sg70
g1902
sg63
(lp1918
g56
(g57
g58
NtRp1919
(dp1920
g61
(dp1921
g69
I3
ssg70
g1915
sg63
(lp1922
g824
asbasbasbag56
(g72
g58
NtRp1923
(dp1924
g61
(dp1925
sg70
g1667
sg63
(lp1926
g56
(g77
g58
NtRp1927
(dp1928
g61
(dp1929
g81
g82
ssg70
g1923
sg63
(lp1930
S'PATH_INFO'
p1931
asbag56
(g77
g58
NtRp1932
(dp1933
g61
(dp1934
g88
g89
ssg70
g1923
sg63
(lp1935
S':'
asbag56
(g77
g58
NtRp1936
(dp1937
g61
(dp1938
sg70
g1923
sg63
(lp1939
g56
(g57
g58
NtRp1940
(dp1941
g61
(dp1942
g69
I3
ssg70
g1936
sg63
(lp1943
g846
asbasbasbag56
(g72
g58
NtRp1944
(dp1945
g61
(dp1946
sg70
g1667
sg63
(lp1947
g56
(g77
g58
NtRp1948
(dp1949
g61
(dp1950
g81
g82
ssg70
g1944
sg63
(lp1951
S'QUERY_STRING'
p1952
asbag56
(g77
g58
NtRp1953
(dp1954
g61
(dp1955
g88
g89
ssg70
g1944
sg63
(lp1956
S':'
asbag56
(g77
g58
NtRp1957
(dp1958
g61
(dp1959
sg70
g1944
sg63
(lp1960
g56
(g57
g58
NtRp1961
(dp1962
g61
(dp1963
g69
I3
ssg70
g1957
sg63
(lp1964
S''
asbasbasbag56
(g72
g58
NtRp1965
(dp1966
g61
(dp1967
sg70
g1667
sg63
(lp1968
g56
(g77
g58
NtRp1969
(dp1970
g61
(dp1971
g81
g82
ssg70
g1965
sg63
(lp1972
S'REMOTE_ADDR'
p1973
asbag56
(g77
g58
NtRp1974
(dp1975
g61
(dp1976
g88
g89
ssg70
g1965
sg63
(lp1977
S':'
asbag56
(g77
g58
NtRp1978
(dp1979
g61
(dp1980
sg70
g1965
sg63
(lp1981
g56
(g57
g58
NtRp1982
(dp1983
g61
(dp1984
g69
I3
ssg70
g1978
sg63
(lp1985
g189
asbasbasbag56
(g72
g58
NtRp1986
(dp1987
g61
(dp1988
sg70
g1667
sg63
(lp1989
g56
(g77
g58
NtRp1990
(dp1991
g61
(dp1992
g81
g82
ssg70
g1986
sg63
(lp1993
S'REMOTE_PORT'
p1994
asbag56
(g77
g58
NtRp1995
(dp1996
g61
(dp1997
g88
g89
ssg70
g1986
sg63
(lp1998
S':'
asbag56
(g77
g58
NtRp1999
(dp2000
g61
(dp2001
sg70
g1986
sg63
(lp2002
g56
(g57
g58
NtRp2003
(dp2004
g61
(dp2005
g69
I3
ssg70
g1999
sg63
(lp2006
g910
asbasbasbag56
(g72
g58
NtRp2007
(dp2008
g61
(dp2009
sg70
g1667
sg63
(lp2010
g56
(g77
g58
NtRp2011
(dp2012
g61
(dp2013
g81
g82
ssg70
g2007
sg63
(lp2014
S'REQUEST_METHOD'
p2015
asbag56
(g77
g58
NtRp2016
(dp2017
g61
(dp2018
g88
g89
ssg70
g2007
sg63
(lp2019
S':'
asbag56
(g77
g58
NtRp2020
(dp2021
g61
(dp2022
sg70
g2007
sg63
(lp2023
g56
(g57
g58
NtRp2024
(dp2025
g61
(dp2026
g69
I3
ssg70
g2020
sg63
(lp2027
g932
asbasbasbag56
(g72
g58
NtRp2028
(dp2029
g61
(dp2030
sg70
g1667
sg63
(lp2031
g56
(g77
g58
NtRp2032
(dp2033
g61
(dp2034
g81
g82
ssg70
g2028
sg63
(lp2035
S'REQUEST_URI'
p2036
asbag56
(g77
g58
NtRp2037
(dp2038
g61
(dp2039
g88
g89
ssg70
g2028
sg63
(lp2040
S':'
asbag56
(g77
g58
NtRp2041
(dp2042
g61
(dp2043
sg70
g2028
sg63
(lp2044
g56
(g57
g58
NtRp2045
(dp2046
g61
(dp2047
g69
I3
ssg70
g2041
sg63
(lp2048
g846
asbasbasbag56
(g72
g58
NtRp2049
(dp2050
g61
(dp2051
sg70
g1667
sg63
(lp2052
g56
(g77
g58
NtRp2053
(dp2054
g61
(dp2055
g81
g82
ssg70
g2049
sg63
(lp2056
S'SERVER_NAME'
p2057
asbag56
(g77
g58
NtRp2058
(dp2059
g61
(dp2060
g88
g89
ssg70
g2049
sg63
(lp2061
S':'
asbag56
(g77
g58
NtRp2062
(dp2063
g61
(dp2064
sg70
g2049
sg63
(lp2065
g56
(g57
g58
NtRp2066
(dp2067
g61
(dp2068
g69
I3
ssg70
g2062
sg63
(lp2069
g975
asbasbasbag56
(g72
g58
NtRp2070
(dp2071
g61
(dp2072
sg70
g1667
sg63
(lp2073
g56
(g77
g58
NtRp2074
(dp2075
g61
(dp2076
g81
g82
ssg70
g2070
sg63
(lp2077
S'SERVER_PORT'
p2078
asbag56
(g77
g58
NtRp2079
(dp2080
g61
(dp2081
g88
g89
ssg70
g2070
sg63
(lp2082
S':'
asbag56
(g77
g58
NtRp2083
(dp2084
g61
(dp2085
sg70
g2070
sg63
(lp2086
g56
(g57
g58
NtRp2087
(dp2088
g61
(dp2089
g69
I3
ssg70
g2083
sg63
(lp2090
g997
asbasbasbag56
(g72
g58
NtRp2091
(dp2092
g61
(dp2093
sg70
g1667
sg63
(lp2094
g56
(g77
g58
NtRp2095
(dp2096
g61
(dp2097
g81
g82
ssg70
g2091
sg63
(lp2098
S'SERVER_PROTOCOL'
p2099
asbag56
(g77
g58
NtRp2100
(dp2101
g61
(dp2102
g88
g89
ssg70
g2091
sg63
(lp2103
S':'
asbag56
(g77
g58
NtRp2104
(dp2105
g61
(dp2106
sg70
g2091
sg63
(lp2107
g56
(g57
g58
NtRp2108
(dp2109
g61
(dp2110
g69
I3
ssg70
g2104
sg63
(lp2111
g1019
asbasbasbag56
(g72
g58
NtRp2112
(dp2113
g61
(dp2114
sg70
g1667
sg63
(lp2115
g56
(g77
g58
NtRp2116
(dp2117
g61
(dp2118
g81
g82
ssg70
g2112
sg63
(lp2119
S'UWSGI_MODULE'
p2120
asbag56
(g77
g58
NtRp2121
(dp2122
g61
(dp2123
g88
g89
ssg70
g2112
sg63
(lp2124
S':'
asbag56
(g77
g58
NtRp2125
(dp2126
g61
(dp2127
sg70
g2112
sg63
(lp2128
g56
(g57
g58
NtRp2129
(dp2130
g61
(dp2131
g69
I3
ssg70
g2125
sg63
(lp2132
g1041
asbasbasbag56
(g72
g58
NtRp2133
(dp2134
g61
(dp2135
sg70
g1667
sg63
(lp2136
g56
(g77
g58
NtRp2137
(dp2138
g61
(dp2139
g81
g82
ssg70
g2133
sg63
(lp2140
S'UWSGI_PYHOME'
p2141
asbag56
(g77
g58
NtRp2142
(dp2143
g61
(dp2144
g88
g89
ssg70
g2133
sg63
(lp2145
S':'
asbag56
(g77
g58
NtRp2146
(dp2147
g61
(dp2148
sg70
g2133
sg63
(lp2149
g56
(g57
g58
NtRp2150
(dp2151
g61
(dp2152
g69
I3
ssg70
g2146
sg63
(lp2153
g1063
asbasbasbag56
(g72
g58
NtRp2154
(dp2155
g61
(dp2156
sg70
g1667
sg63
(lp2157
g56
(g77
g58
NtRp2158
(dp2159
g61
(dp2160
g81
g82
ssg70
g2154
sg63
(lp2161
S'WEB2PY_ORIGINAL_URI'
p2162
asbag56
(g77
g58
NtRp2163
(dp2164
g61
(dp2165
g88
g89
ssg70
g2154
sg63
(lp2166
S':'
asbag56
(g77
g58
NtRp2167
(dp2168
g61
(dp2169
sg70
g2154
sg63
(lp2170
g56
(g57
g58
NtRp2171
(dp2172
g61
(dp2173
g69
I3
ssg70
g2167
sg63
(lp2174
g846
asbasbasbag56
(g72
g58
NtRp2175
(dp2176
g61
(dp2177
sg70
g1667
sg63
(lp2178
g56
(g77
g58
NtRp2179
(dp2180
g61
(dp2181
g81
g82
ssg70
g2175
sg63
(lp2182
S'uwsgi.version'
p2183
asbag56
(g77
g58
NtRp2184
(dp2185
g61
(dp2186
g88
g89
ssg70
g2175
sg63
(lp2187
S':'
asbag56
(g77
g58
NtRp2188
(dp2189
g61
(dp2190
sg70
g2175
sg63
(lp2191
g56
(g57
g58
NtRp2192
(dp2193
g61
(dp2194
g69
I3
ssg70
g2188
sg63
(lp2195
g1085
asbasbasbag56
(g72
g58
NtRp2196
(dp2197
g61
(dp2198
sg70
g1667
sg63
(lp2199
g56
(g77
g58
NtRp2200
(dp2201
g61
(dp2202
g81
g82
ssg70
g2196
sg63
(lp2203
S'wsgi.errors'
p2204
asbag56
(g77
g58
NtRp2205
(dp2206
g61
(dp2207
g88
g89
ssg70
g2196
sg63
(lp2208
S':'
asbag56
(g77
g58
NtRp2209
(dp2210
g61
(dp2211
sg70
g2196
sg63
(lp2212
g56
(g57
g58
NtRp2213
(dp2214
g61
(dp2215
g69
I3
ssg70
g2209
sg63
(lp2216
S"<open file 'wsgi_input', mode 'w' at 0x101bcd270>"
p2217
asbasbasbag56
(g72
g58
NtRp2218
(dp2219
g61
(dp2220
sg70
g1667
sg63
(lp2221
g56
(g77
g58
NtRp2222
(dp2223
g61
(dp2224
g81
g82
ssg70
g2218
sg63
(lp2225
S'wsgi.file_wrapper'
p2226
asbag56
(g77
g58
NtRp2227
(dp2228
g61
(dp2229
g88
g89
ssg70
g2218
sg63
(lp2230
S':'
asbag56
(g77
g58
NtRp2231
(dp2232
g61
(dp2233
sg70
g2218
sg63
(lp2234
g56
(g57
g58
NtRp2235
(dp2236
g61
(dp2237
g69
I3
ssg70
g2231
sg63
(lp2238
S'<built-in function uwsgi_sendfile>'
p2239
asbasbasbag56
(g72
g58
NtRp2240
(dp2241
g61
(dp2242
sg70
g1667
sg63
(lp2243
g56
(g77
g58
NtRp2244
(dp2245
g61
(dp2246
g81
g82
ssg70
g2240
sg63
(lp2247
S'wsgi.input'
p2248
asbag56
(g77
g58
NtRp2249
(dp2250
g61
(dp2251
g88
g89
ssg70
g2240
sg63
(lp2252
S':'
asbag56
(g77
g58
NtRp2253
(dp2254
g61
(dp2255
sg70
g2240
sg63
(lp2256
g56
(g57
g58
NtRp2257
(dp2258
g61
(dp2259
g69
I3
ssg70
g2253
sg63
(lp2260
S'<cStringIO.StringO object at 0x101d46998>'
p2261
asbasbasbag56
(g72
g58
NtRp2262
(dp2263
g61
(dp2264
sg70
g1667
sg63
(lp2265
g56
(g77
g58
NtRp2266
(dp2267
g61
(dp2268
g81
g82
ssg70
g2262
sg63
(lp2269
S'wsgi.multiprocess'
p2270
asbag56
(g77
g58
NtRp2271
(dp2272
g61
(dp2273
g88
g89
ssg70
g2262
sg63
(lp2274
S':'
asbag56
(g77
g58
NtRp2275
(dp2276
g61
(dp2277
sg70
g2262
sg63
(lp2278
g56
(g57
g58
NtRp2279
(dp2280
g61
(dp2281
g69
I3
ssg70
g2275
sg63
(lp2282
g99
asbasbasbag56
(g72
g58
NtRp2283
(dp2284
g61
(dp2285
sg70
g1667
sg63
(lp2286
g56
(g77
g58
NtRp2287
(dp2288
g61
(dp2289
g81
g82
ssg70
g2283
sg63
(lp2290
S'wsgi.multithread'
p2291
asbag56
(g77
g58
NtRp2292
(dp2293
g61
(dp2294
g88
g89
ssg70
g2283
sg63
(lp2295
S':'
asbag56
(g77
g58
NtRp2296
(dp2297
g61
(dp2298
sg70
g2283
sg63
(lp2299
g56
(g57
g58
NtRp2300
(dp2301
g61
(dp2302
g69
I3
ssg70
g2296
sg63
(lp2303
g99
asbasbasbag56
(g72
g58
NtRp2304
(dp2305
g61
(dp2306
sg70
g1667
sg63
(lp2307
g56
(g77
g58
NtRp2308
(dp2309
g61
(dp2310
g81
g82
ssg70
g2304
sg63
(lp2311
S'wsgi.run_once'
p2312
asbag56
(g77
g58
NtRp2313
(dp2314
g61
(dp2315
g88
g89
ssg70
g2304
sg63
(lp2316
S':'
asbag56
(g77
g58
NtRp2317
(dp2318
g61
(dp2319
sg70
g2304
sg63
(lp2320
g56
(g57
g58
NtRp2321
(dp2322
g61
(dp2323
g69
I3
ssg70
g2317
sg63
(lp2324
g99
asbasbasbag56
(g72
g58
NtRp2325
(dp2326
g61
(dp2327
sg70
g1667
sg63
(lp2328
g56
(g77
g58
NtRp2329
(dp2330
g61
(dp2331
g81
g82
ssg70
g2325
sg63
(lp2332
S'wsgi.url_scheme'
p2333
asbag56
(g77
g58
NtRp2334
(dp2335
g61
(dp2336
g88
g89
ssg70
g2325
sg63
(lp2337
S':'
asbag56
(g77
g58
NtRp2338
(dp2339
g61
(dp2340
sg70
g2325
sg63
(lp2341
g56
(g57
g58
NtRp2342
(dp2343
g61
(dp2344
g69
I3
ssg70
g2338
sg63
(lp2345
g1300
asbasbasbag56
(g72
g58
NtRp2346
(dp2347
g61
(dp2348
sg70
g1667
sg63
(lp2349
g56
(g77
g58
NtRp2350
(dp2351
g61
(dp2352
g81
g82
ssg70
g2346
sg63
(lp2353
S'wsgi.version'
p2354
asbag56
(g77
g58
NtRp2355
(dp2356
g61
(dp2357
g88
g89
ssg70
g2346
sg63
(lp2358
S':'
asbag56
(g77
g58
NtRp2359
(dp2360
g61
(dp2361
sg70
g2346
sg63
(lp2362
g56
(g57
g58
NtRp2363
(dp2364
g61
(dp2365
g69
I3
ssg70
g2359
sg63
(lp2366
S'1'
asbasbasbasbasbasbasbasbasbasbasbasbasbsS'frames'
p2367
(lp2368
(dp2369
S'file'
p2370
S'/Applications/MNPP/Library/python26/lib/python2.6/site-packages/gluon/restricted.py'
p2371
sS'dump'
p2372
(dp2373
S'environment'
p2374
S"{'A': <class 'gluon.html.A'>, 'B': <class 'gluon.html.B'>, 'BEAUTIFY': <class 'gluon.html.BEAUTIFY'>, 'BODY': <class 'gluon.html.BODY'>, 'BR': <class 'gluon.html.BR'>, 'CENTER': <class 'gluon.html.CENTER'>, 'CLEANUP': <class 'gluon.validators.CLEANUP'>, 'CODE': <class 'gluon.html.CODE'>, 'CRYPT': <class 'gluon.validators.CRYPT'>, 'DAL': <class 'gluon.dal.DAL'>, ...}"
p2375
sS'ccode'
p2376
S'<code object <module> at 0x101d6e300, file "/Use.../web2py/applications/front/models/db.py", line 3>'
p2377
ssS'lnum'
p2378
I184
sS'lines'
p2379
(dp2380
I179
S'    try:'
p2381
sI180
S'        if type(code) == types.CodeType:'
p2382
sI181
S'            ccode = code'
p2383
sI182
S'        else:'
p2384
sI183
S'            ccode = compile2(code,layer)'
p2385
sI184
S'        exec ccode in environment'
p2386
sI185
S'    except HTTP:'
p2387
sI186
S'        raise'
p2388
sI187
S'    except Exception:'
p2389
sI188
S'        # XXX Show exception in Wing IDE if running in debugger'
p2390
ssS'call'
p2391
S'(code="# coding: utf8\\n\\nif request.env.web2py_runtime_ga... \\n    db = DAL(\'mysql://root:@localhost/web2py\')\\n", environment={\'A\': <class \'gluon.html.A\'>, \'B\': <class \'gluon.html.B\'>, \'BEAUTIFY\': <class \'gluon.html.BEAUTIFY\'>, \'BODY\': <class \'gluon.html.BODY\'>, \'BR\': <class \'gluon.html.BR\'>, \'CENTER\': <class \'gluon.html.CENTER\'>, \'CLEANUP\': <class \'gluon.validators.CLEANUP\'>, \'CODE\': <class \'gluon.html.CODE\'>, \'CRYPT\': <class \'gluon.validators.CRYPT\'>, \'DAL\': <class \'gluon.dal.DAL\'>, ...}, layer=\'/Users/jyr/Desarrollo/personal/MNPP/htdocs/web2py/applications/front/models/db.py\')'
p2392
sS'func'
p2393
S'restricted'
p2394
sa(dp2395
g2370
S'/Users/jyr/Desarrollo/personal/MNPP/htdocs/web2py/applications/front/models/db.py'
p2396
sg2372
(dp2397
S'DAL'
p2398
S"<class 'gluon.dal.DAL'>"
p2399
sS'db'
p2400
S'undefined'
p2401
ssg2378
I7
sg2379
(dp2402
I1
S'# coding: utf8'
p2403
sI2
S''
sI3
S'if request.env.web2py_runtime_gae:'
p2404
sI4
S"    db = DAL('google:datastore')"
p2405
sI5
S'    session.connect(request, response, db = db)'
p2406
sI6
S'else:'
p2407
sI7
S"    db = DAL('mysql://root:@localhost/web2py')"
p2408
ssg2391
S'()'
p2409
sg2393
S'<module>'
p2410
sa(dp2411
g2370
S'/Applications/MNPP/Library/python26/lib/python2.6/site-packages/gluon/dal.py'
p2412
sg2372
(dp2413
S'attempts'
p2414
S'5'
sS'builtinRuntimeError'
p2415
S"<type 'exceptions.RuntimeError'>"
p2416
sS'error'
p2417
S'OperationalError(2003, "Can\'t connect to MySQL server on \'localhost\' (61)")'
p2418
ssg2378
I3886
sg2379
(dp2419
I3881
S'                if connected:'
p2420
sI3882
S'                    break'
p2421
sI3883
S'                else:'
p2422
sI3884
S'                    time.sleep(1)'
p2423
sI3885
S'            if not connected:'
p2424
sI3886
S'                raise RuntimeError, "Failure to connect, tried %d times:\\n%s" % (attempts, error)'
p2425
sI3887
S'        else:'
p2426
sI3888
S"            args = (self,'None',0,folder,db_codec)"
p2427
sI3889
S'            self._adapter = BaseAdapter(*args)'
p2428
sI3890
S'            migrate = fake_migrate = False'
p2429
ssg2391
S"(self=<DAL {'_lastsql': '', '_db_codec': 'UTF-8', '_ti.../web2py', '_pool_size': 0, '_common_fields': []}>, uri='mysql://root:@localhost/web2py', pool_size=0, folder=None, db_codec='UTF-8', check_reserved=None, migrate=True, fake_migrate=False, migrate_enabled=True, fake_migrate_all=False, decode_credentials=False, driver_args=None, adapter_args={}, attempts=5, auto_import=False)"
p2430
sg2393
g49
sasS'pyver'
p2431
S'Python 2.6.6: /Applications/MNPP/Library/uwsgi/bin/uwsgi'
p2432
sS'session'
p2433
g56
(g57
g58
NtRp2434
(dp2435
g61
(dp2436
sg63
(lp2437
g56
(g65
g58
NtRp2438
(dp2439
g61
(dp2440
g69
I5
ssg70
Nsg63
(lp2441
sbasbsS'etype'
p2442
S"<type 'exceptions.RuntimeError'>"
p2443
sS'date'
p2444
S'Thu Jun  9 19:13:50 2011'
p2445
sS'response'
p2446
g56
(g57
g58
NtRp2447
(dp2448
g61
(dp2449
sg63
(lp2450
g56
(g65
g58
NtRp2451
(dp2452
g61
(dp2453
g69
I5
ssg70
Nsg63
(lp2454
g56
(g72
g58
NtRp2455
(dp2456
g61
(dp2457
sg70
g2451
sg63
(lp2458
g56
(g77
g58
NtRp2459
(dp2460
g61
(dp2461
g81
g82
ssg70
g2455
sg63
(lp2462
g154
asbag56
(g77
g58
NtRp2463
(dp2464
g61
(dp2465
g88
g89
ssg70
g2455
sg63
(lp2466
S':'
asbag56
(g77
g58
NtRp2467
(dp2468
g61
(dp2469
sg70
g2455
sg63
(lp2470
g56
(g57
g58
NtRp2471
(dp2472
g61
(dp2473
g69
I5
ssg70
g2467
sg63
(lp2474
S'<cStringIO.StringO object at 0x101d46340>'
p2475
asbasbasbag56
(g72
g58
NtRp2476
(dp2477
g61
(dp2478
sg70
g2451
sg63
(lp2479
g56
(g77
g58
NtRp2480
(dp2481
g61
(dp2482
g81
g82
ssg70
g2476
sg63
(lp2483
g220
asbag56
(g77
g58
NtRp2484
(dp2485
g61
(dp2486
g88
g89
ssg70
g2476
sg63
(lp2487
S':'
asbag56
(g77
g58
NtRp2488
(dp2489
g61
(dp2490
sg70
g2476
sg63
(lp2491
g56
(g57
g58
NtRp2492
(dp2493
g61
(dp2494
g69
I5
ssg70
g2488
sg63
(lp2495
g56
(g65
g58
NtRp2496
(dp2497
g61
(dp2498
g69
I4
ssg70
Nsg63
(lp2499
g56
(g72
g58
NtRp2500
(dp2501
g61
(dp2502
sg70
g2496
sg63
(lp2503
g56
(g77
g58
NtRp2504
(dp2505
g61
(dp2506
g81
g82
ssg70
g2500
sg63
(lp2507
S'session_id_front'
p2508
asbag56
(g77
g58
NtRp2509
(dp2510
g61
(dp2511
g88
g89
ssg70
g2500
sg63
(lp2512
S':'
asbag56
(g77
g58
NtRp2513
(dp2514
g61
(dp2515
sg70
g2500
sg63
(lp2516
g56
(g57
g58
NtRp2517
(dp2518
g61
(dp2519
g69
I4
ssg70
g2513
sg63
(lp2520
g56
(g65
g58
NtRp2521
(dp2522
g61
(dp2523
g69
I3
ssg70
Nsg63
(lp2524
g56
(g72
g58
NtRp2525
(dp2526
g61
(dp2527
sg70
g2521
sg63
(lp2528
g56
(g77
g58
NtRp2529
(dp2530
g61
(dp2531
g81
g82
ssg70
g2525
sg63
(lp2532
g270
asbag56
(g77
g58
NtRp2533
(dp2534
g61
(dp2535
g88
g89
ssg70
g2525
sg63
(lp2536
S':'
asbag56
(g77
g58
NtRp2537
(dp2538
g61
(dp2539
sg70
g2525
sg63
(lp2540
g56
(g57
g58
NtRp2541
(dp2542
g61
(dp2543
g69
I3
ssg70
g2537
sg63
(lp2544
S''
asbasbasbag56
(g72
g58
NtRp2545
(dp2546
g61
(dp2547
sg70
g2521
sg63
(lp2548
g56
(g77
g58
NtRp2549
(dp2550
g61
(dp2551
g81
g82
ssg70
g2545
sg63
(lp2552
g291
asbag56
(g77
g58
NtRp2553
(dp2554
g61
(dp2555
g88
g89
ssg70
g2545
sg63
(lp2556
S':'
asbag56
(g77
g58
NtRp2557
(dp2558
g61
(dp2559
sg70
g2545
sg63
(lp2560
g56
(g57
g58
NtRp2561
(dp2562
g61
(dp2563
g69
I3
ssg70
g2557
sg63
(lp2564
S''
asbasbasbag56
(g72
g58
NtRp2565
(dp2566
g61
(dp2567
sg70
g2521
sg63
(lp2568
g56
(g77
g58
NtRp2569
(dp2570
g61
(dp2571
g81
g82
ssg70
g2565
sg63
(lp2572
g312
asbag56
(g77
g58
NtRp2573
(dp2574
g61
(dp2575
g88
g89
ssg70
g2565
sg63
(lp2576
S':'
asbag56
(g77
g58
NtRp2577
(dp2578
g61
(dp2579
sg70
g2565
sg63
(lp2580
g56
(g57
g58
NtRp2581
(dp2582
g61
(dp2583
g69
I3
ssg70
g2577
sg63
(lp2584
S''
asbasbasbag56
(g72
g58
NtRp2585
(dp2586
g61
(dp2587
sg70
g2521
sg63
(lp2588
g56
(g77
g58
NtRp2589
(dp2590
g61
(dp2591
g81
g82
ssg70
g2585
sg63
(lp2592
g333
asbag56
(g77
g58
NtRp2593
(dp2594
g61
(dp2595
g88
g89
ssg70
g2585
sg63
(lp2596
S':'
asbag56
(g77
g58
NtRp2597
(dp2598
g61
(dp2599
sg70
g2585
sg63
(lp2600
g56
(g57
g58
NtRp2601
(dp2602
g61
(dp2603
g69
I3
ssg70
g2597
sg63
(lp2604
S''
asbasbasbag56
(g72
g58
NtRp2605
(dp2606
g61
(dp2607
sg70
g2521
sg63
(lp2608
g56
(g77
g58
NtRp2609
(dp2610
g61
(dp2611
g81
g82
ssg70
g2605
sg63
(lp2612
g354
asbag56
(g77
g58
NtRp2613
(dp2614
g61
(dp2615
g88
g89
ssg70
g2605
sg63
(lp2616
S':'
asbag56
(g77
g58
NtRp2617
(dp2618
g61
(dp2619
sg70
g2605
sg63
(lp2620
g56
(g57
g58
NtRp2621
(dp2622
g61
(dp2623
g69
I3
ssg70
g2617
sg63
(lp2624
S''
asbasbasbag56
(g72
g58
NtRp2625
(dp2626
g61
(dp2627
sg70
g2521
sg63
(lp2628
g56
(g77
g58
NtRp2629
(dp2630
g61
(dp2631
g81
g82
ssg70
g2625
sg63
(lp2632
g375
asbag56
(g77
g58
NtRp2633
(dp2634
g61
(dp2635
g88
g89
ssg70
g2625
sg63
(lp2636
S':'
asbag56
(g77
g58
NtRp2637
(dp2638
g61
(dp2639
sg70
g2625
sg63
(lp2640
g56
(g57
g58
NtRp2641
(dp2642
g61
(dp2643
g69
I3
ssg70
g2637
sg63
(lp2644
S'/'
asbasbasbag56
(g72
g58
NtRp2645
(dp2646
g61
(dp2647
sg70
g2521
sg63
(lp2648
g56
(g77
g58
NtRp2649
(dp2650
g61
(dp2651
g81
g82
ssg70
g2645
sg63
(lp2652
g396
asbag56
(g77
g58
NtRp2653
(dp2654
g61
(dp2655
g88
g89
ssg70
g2645
sg63
(lp2656
S':'
asbag56
(g77
g58
NtRp2657
(dp2658
g61
(dp2659
sg70
g2645
sg63
(lp2660
g56
(g57
g58
NtRp2661
(dp2662
g61
(dp2663
g69
I3
ssg70
g2657
sg63
(lp2664
S''
asbasbasbag56
(g72
g58
NtRp2665
(dp2666
g61
(dp2667
sg70
g2521
sg63
(lp2668
g56
(g77
g58
NtRp2669
(dp2670
g61
(dp2671
g81
g82
ssg70
g2665
sg63
(lp2672
g417
asbag56
(g77
g58
NtRp2673
(dp2674
g61
(dp2675
g88
g89
ssg70
g2665
sg63
(lp2676
S':'
asbag56
(g77
g58
NtRp2677
(dp2678
g61
(dp2679
sg70
g2665
sg63
(lp2680
g56
(g57
g58
NtRp2681
(dp2682
g61
(dp2683
g69
I3
ssg70
g2677
sg63
(lp2684
S''
asbasbasbasbasbasbasbasbasbasbasbag56
(g72
g58
NtRp2685
(dp2686
g61
(dp2687
sg70
g2451
sg63
(lp2688
g56
(g77
g58
NtRp2689
(dp2690
g61
(dp2691
g81
g82
ssg70
g2685
sg63
(lp2692
S'files'
p2693
asbag56
(g77
g58
NtRp2694
(dp2695
g61
(dp2696
g88
g89
ssg70
g2685
sg63
(lp2697
S':'
asbag56
(g77
g58
NtRp2698
(dp2699
g61
(dp2700
sg70
g2685
sg63
(lp2701
g56
(g57
g58
NtRp2702
(dp2703
g61
(dp2704
g69
I5
ssg70
g2698
sg63
(lp2705
g56
(g65
g58
NtRp2706
(dp2707
g61
(dp2708
g69
I4
ssg70
Nsg63
(lp2709
g56
(g72
g58
NtRp2710
(dp2711
g61
(dp2712
sg70
g2706
sg63
(lp2713
g56
(g77
g58
NtRp2714
(dp2715
g61
(dp2716
sg70
g2710
sg63
(lp2717
g56
(g57
g58
NtRp2718
(dp2719
g61
(dp2720
g69
I4
ssg70
g2714
sg63
(lp2721
S'/front/static/css/base.css'
p2722
asbasbasbag56
(g72
g58
NtRp2723
(dp2724
g61
(dp2725
sg70
g2706
sg63
(lp2726
g56
(g77
g58
NtRp2727
(dp2728
g61
(dp2729
sg70
g2723
sg63
(lp2730
g56
(g57
g58
NtRp2731
(dp2732
g61
(dp2733
g69
I4
ssg70
g2727
sg63
(lp2734
S'/front/static/css/web2py.css'
p2735
asbasbasbag56
(g72
g58
NtRp2736
(dp2737
g61
(dp2738
sg70
g2706
sg63
(lp2739
g56
(g77
g58
NtRp2740
(dp2741
g61
(dp2742
sg70
g2736
sg63
(lp2743
g56
(g57
g58
NtRp2744
(dp2745
g61
(dp2746
g69
I4
ssg70
g2740
sg63
(lp2747
S'/front/static/css/superfish.css'
p2748
asbasbasbag56
(g72
g58
NtRp2749
(dp2750
g61
(dp2751
sg70
g2706
sg63
(lp2752
g56
(g77
g58
NtRp2753
(dp2754
g61
(dp2755
sg70
g2749
sg63
(lp2756
g56
(g57
g58
NtRp2757
(dp2758
g61
(dp2759
g69
I4
ssg70
g2753
sg63
(lp2760
S'/front/static/css/superfish-navbar.css'
p2761
asbasbasbag56
(g72
g58
NtRp2762
(dp2763
g61
(dp2764
sg70
g2706
sg63
(lp2765
g56
(g77
g58
NtRp2766
(dp2767
g61
(dp2768
sg70
g2762
sg63
(lp2769
g56
(g57
g58
NtRp2770
(dp2771
g61
(dp2772
g69
I4
ssg70
g2766
sg63
(lp2773
S'/front/static/css/superfish-vertical.css'
p2774
asbasbasbag56
(g72
g58
NtRp2775
(dp2776
g61
(dp2777
sg70
g2706
sg63
(lp2778
g56
(g77
g58
NtRp2779
(dp2780
g61
(dp2781
sg70
g2775
sg63
(lp2782
g56
(g57
g58
NtRp2783
(dp2784
g61
(dp2785
g69
I4
ssg70
g2779
sg63
(lp2786
S'/front/static/js/dd_belatedpng.js'
p2787
asbasbasbag56
(g72
g58
NtRp2788
(dp2789
g61
(dp2790
sg70
g2706
sg63
(lp2791
g56
(g77
g58
NtRp2792
(dp2793
g61
(dp2794
sg70
g2788
sg63
(lp2795
g56
(g57
g58
NtRp2796
(dp2797
g61
(dp2798
g69
I4
ssg70
g2792
sg63
(lp2799
S'/front/static/js/modernizr-1.7.min.js'
p2800
asbasbasbag56
(g72
g58
NtRp2801
(dp2802
g61
(dp2803
sg70
g2706
sg63
(lp2804
g56
(g77
g58
NtRp2805
(dp2806
g61
(dp2807
sg70
g2801
sg63
(lp2808
g56
(g57
g58
NtRp2809
(dp2810
g61
(dp2811
g69
I4
ssg70
g2805
sg63
(lp2812
S'/front/static/js/jquery.js'
p2813
asbasbasbag56
(g72
g58
NtRp2814
(dp2815
g61
(dp2816
sg70
g2706
sg63
(lp2817
g56
(g77
g58
NtRp2818
(dp2819
g61
(dp2820
sg70
g2814
sg63
(lp2821
g56
(g57
g58
NtRp2822
(dp2823
g61
(dp2824
g69
I4
ssg70
g2818
sg63
(lp2825
S'/front/static/js/web2py.js'
p2826
asbasbasbag56
(g72
g58
NtRp2827
(dp2828
g61
(dp2829
sg70
g2706
sg63
(lp2830
g56
(g77
g58
NtRp2831
(dp2832
g61
(dp2833
sg70
g2827
sg63
(lp2834
g56
(g57
g58
NtRp2835
(dp2836
g61
(dp2837
g69
I4
ssg70
g2831
sg63
(lp2838
S'/front/static/js/superfish.js'
p2839
asbasbasbasbasbasbasbag56
(g72
g58
NtRp2840
(dp2841
g61
(dp2842
sg70
g2451
sg63
(lp2843
g56
(g77
g58
NtRp2844
(dp2845
g61
(dp2846
g81
g82
ssg70
g2840
sg63
(lp2847
S'flash'
p2848
asbag56
(g77
g58
NtRp2849
(dp2850
g61
(dp2851
g88
g89
ssg70
g2840
sg63
(lp2852
S':'
asbag56
(g77
g58
NtRp2853
(dp2854
g61
(dp2855
sg70
g2840
sg63
(lp2856
g56
(g57
g58
NtRp2857
(dp2858
g61
(dp2859
g69
I5
ssg70
g2853
sg63
(lp2860
S''
asbasbasbag56
(g72
g58
NtRp2861
(dp2862
g61
(dp2863
sg70
g2451
sg63
(lp2864
g56
(g77
g58
NtRp2865
(dp2866
g61
(dp2867
g81
g82
ssg70
g2861
sg63
(lp2868
S'headers'
p2869
asbag56
(g77
g58
NtRp2870
(dp2871
g61
(dp2872
g88
g89
ssg70
g2861
sg63
(lp2873
S':'
asbag56
(g77
g58
NtRp2874
(dp2875
g61
(dp2876
sg70
g2861
sg63
(lp2877
g56
(g57
g58
NtRp2878
(dp2879
g61
(dp2880
g69
I5
ssg70
g2874
sg63
(lp2881
g56
(g65
g58
NtRp2882
(dp2883
g61
(dp2884
g69
I4
ssg70
Nsg63
(lp2885
g56
(g72
g58
NtRp2886
(dp2887
g61
(dp2888
sg70
g2882
sg63
(lp2889
g56
(g77
g58
NtRp2890
(dp2891
g61
(dp2892
g81
g82
ssg70
g2886
sg63
(lp2893
S'Cache-Control'
p2894
asbag56
(g77
g58
NtRp2895
(dp2896
g61
(dp2897
g88
g89
ssg70
g2886
sg63
(lp2898
S':'
asbag56
(g77
g58
NtRp2899
(dp2900
g61
(dp2901
sg70
g2886
sg63
(lp2902
g56
(g57
g58
NtRp2903
(dp2904
g61
(dp2905
g69
I4
ssg70
g2899
sg63
(lp2906
S'no-store, no-cache, must-revalidate, post-check=0, pre-check=0'
p2907
asbasbasbag56
(g72
g58
NtRp2908
(dp2909
g61
(dp2910
sg70
g2882
sg63
(lp2911
g56
(g77
g58
NtRp2912
(dp2913
g61
(dp2914
g81
g82
ssg70
g2908
sg63
(lp2915
S'Content-Type'
p2916
asbag56
(g77
g58
NtRp2917
(dp2918
g61
(dp2919
g88
g89
ssg70
g2908
sg63
(lp2920
S':'
asbag56
(g77
g58
NtRp2921
(dp2922
g61
(dp2923
sg70
g2908
sg63
(lp2924
g56
(g57
g58
NtRp2925
(dp2926
g61
(dp2927
g69
I4
ssg70
g2921
sg63
(lp2928
S'text/html; charset=utf-8'
p2929
asbasbasbag56
(g72
g58
NtRp2930
(dp2931
g61
(dp2932
sg70
g2882
sg63
(lp2933
g56
(g77
g58
NtRp2934
(dp2935
g61
(dp2936
g81
g82
ssg70
g2930
sg63
(lp2937
S'Expires'
p2938
asbag56
(g77
g58
NtRp2939
(dp2940
g61
(dp2941
g88
g89
ssg70
g2930
sg63
(lp2942
S':'
asbag56
(g77
g58
NtRp2943
(dp2944
g61
(dp2945
sg70
g2930
sg63
(lp2946
g56
(g57
g58
NtRp2947
(dp2948
g61
(dp2949
g69
I4
ssg70
g2943
sg63
(lp2950
S'Fri, 10 Jun 2011 00:13:45 GMT'
p2951
asbasbasbag56
(g72
g58
NtRp2952
(dp2953
g61
(dp2954
sg70
g2882
sg63
(lp2955
g56
(g77
g58
NtRp2956
(dp2957
g61
(dp2958
g81
g82
ssg70
g2952
sg63
(lp2959
S'Pragma'
p2960
asbag56
(g77
g58
NtRp2961
(dp2962
g61
(dp2963
g88
g89
ssg70
g2952
sg63
(lp2964
S':'
asbag56
(g77
g58
NtRp2965
(dp2966
g61
(dp2967
sg70
g2952
sg63
(lp2968
g56
(g57
g58
NtRp2969
(dp2970
g61
(dp2971
g69
I4
ssg70
g2965
sg63
(lp2972
S'no-cache'
p2973
asbasbasbag56
(g72
g58
NtRp2974
(dp2975
g61
(dp2976
sg70
g2882
sg63
(lp2977
g56
(g77
g58
NtRp2978
(dp2979
g61
(dp2980
g81
g82
ssg70
g2974
sg63
(lp2981
S'X-Powered-By'
p2982
asbag56
(g77
g58
NtRp2983
(dp2984
g61
(dp2985
g88
g89
ssg70
g2974
sg63
(lp2986
S':'
asbag56
(g77
g58
NtRp2987
(dp2988
g61
(dp2989
sg70
g2974
sg63
(lp2990
g56
(g57
g58
NtRp2991
(dp2992
g61
(dp2993
g69
I4
ssg70
g2987
sg63
(lp2994
S'web2py'
p2995
asbasbasbasbasbasbasbag56
(g72
g58
NtRp2996
(dp2997
g61
(dp2998
sg70
g2451
sg63
(lp2999
g56
(g77
g58
NtRp3000
(dp3001
g61
(dp3002
g81
g82
ssg70
g2996
sg63
(lp3003
S'menu'
p3004
asbag56
(g77
g58
NtRp3005
(dp3006
g61
(dp3007
g88
g89
ssg70
g2996
sg63
(lp3008
S':'
asbag56
(g77
g58
NtRp3009
(dp3010
g61
(dp3011
sg70
g2996
sg63
(lp3012
g56
(g57
g58
NtRp3013
(dp3014
g61
(dp3015
g69
I5
ssg70
g3009
sg63
(lp3016
g56
(g65
g58
NtRp3017
(dp3018
g61
(dp3019
g69
I4
ssg70
Nsg63
(lp3020
sbasbasbasbag56
(g72
g58
NtRp3021
(dp3022
g61
(dp3023
sg70
g2451
sg63
(lp3024
g56
(g77
g58
NtRp3025
(dp3026
g61
(dp3027
g81
g82
ssg70
g3021
sg63
(lp3028
S'meta'
p3029
asbag56
(g77
g58
NtRp3030
(dp3031
g61
(dp3032
g88
g89
ssg70
g3021
sg63
(lp3033
S':'
asbag56
(g77
g58
NtRp3034
(dp3035
g61
(dp3036
sg70
g3021
sg63
(lp3037
g56
(g57
g58
NtRp3038
(dp3039
g61
(dp3040
g69
I5
ssg70
g3034
sg63
(lp3041
g56
(g65
g58
NtRp3042
(dp3043
g61
(dp3044
g69
I4
ssg70
Nsg63
(lp3045
g56
(g72
g58
NtRp3046
(dp3047
g61
(dp3048
sg70
g3042
sg63
(lp3049
g56
(g77
g58
NtRp3050
(dp3051
g61
(dp3052
g81
g82
ssg70
g3046
sg63
(lp3053
S'author'
p3054
asbag56
(g77
g58
NtRp3055
(dp3056
g61
(dp3057
g88
g89
ssg70
g3046
sg63
(lp3058
S':'
asbag56
(g77
g58
NtRp3059
(dp3060
g61
(dp3061
sg70
g3046
sg63
(lp3062
g56
(g57
g58
NtRp3063
(dp3064
g61
(dp3065
g69
I4
ssg70
g3059
sg63
(lp3066
S'Alvaro Lizama'
p3067
asbasbasbag56
(g72
g58
NtRp3068
(dp3069
g61
(dp3070
sg70
g3042
sg63
(lp3071
g56
(g77
g58
NtRp3072
(dp3073
g61
(dp3074
g81
g82
ssg70
g3068
sg63
(lp3075
S'copyright'
p3076
asbag56
(g77
g58
NtRp3077
(dp3078
g61
(dp3079
g88
g89
ssg70
g3068
sg63
(lp3080
S':'
asbag56
(g77
g58
NtRp3081
(dp3082
g61
(dp3083
sg70
g3068
sg63
(lp3084
g56
(g57
g58
NtRp3085
(dp3086
g61
(dp3087
g69
I4
ssg70
g3081
sg63
(lp3088
S'Copyright 2011'
p3089
asbasbasbag56
(g72
g58
NtRp3090
(dp3091
g61
(dp3092
sg70
g3042
sg63
(lp3093
g56
(g77
g58
NtRp3094
(dp3095
g61
(dp3096
g81
g82
ssg70
g3090
sg63
(lp3097
S'description'
p3098
asbag56
(g77
g58
NtRp3099
(dp3100
g61
(dp3101
g88
g89
ssg70
g3090
sg63
(lp3102
S':'
asbag56
(g77
g58
NtRp3103
(dp3104
g61
(dp3105
sg70
g3090
sg63
(lp3106
g56
(g57
g58
NtRp3107
(dp3108
g61
(dp3109
g69
I4
ssg70
g3103
sg63
(lp3110
S''
asbasbasbag56
(g72
g58
NtRp3111
(dp3112
g61
(dp3113
sg70
g3042
sg63
(lp3114
g56
(g77
g58
NtRp3115
(dp3116
g61
(dp3117
g81
g82
ssg70
g3111
sg63
(lp3118
S'email'
p3119
asbag56
(g77
g58
NtRp3120
(dp3121
g61
(dp3122
g88
g89
ssg70
g3111
sg63
(lp3123
S':'
asbag56
(g77
g58
NtRp3124
(dp3125
g61
(dp3126
sg70
g3111
sg63
(lp3127
g56
(g57
g58
NtRp3128
(dp3129
g61
(dp3130
g69
I4
ssg70
g3124
sg63
(lp3131
S'me@alvarolizama.net'
p3132
asbasbasbag56
(g72
g58
NtRp3133
(dp3134
g61
(dp3135
sg70
g3042
sg63
(lp3136
g56
(g77
g58
NtRp3137
(dp3138
g61
(dp3139
g81
g82
ssg70
g3133
sg63
(lp3140
S'keywords'
p3141
asbag56
(g77
g58
NtRp3142
(dp3143
g61
(dp3144
g88
g89
ssg70
g3133
sg63
(lp3145
S':'
asbag56
(g77
g58
NtRp3146
(dp3147
g61
(dp3148
sg70
g3133
sg63
(lp3149
g56
(g57
g58
NtRp3150
(dp3151
g61
(dp3152
g69
I4
ssg70
g3146
sg63
(lp3153
S''
asbasbasbasbasbasbasbag56
(g72
g58
NtRp3154
(dp3155
g61
(dp3156
sg70
g2451
sg63
(lp3157
g56
(g77
g58
NtRp3158
(dp3159
g61
(dp3160
g81
g82
ssg70
g3154
sg63
(lp3161
S'postprocessing'
p3162
asbag56
(g77
g58
NtRp3163
(dp3164
g61
(dp3165
g88
g89
ssg70
g3154
sg63
(lp3166
S':'
asbag56
(g77
g58
NtRp3167
(dp3168
g61
(dp3169
sg70
g3154
sg63
(lp3170
g56
(g57
g58
NtRp3171
(dp3172
g61
(dp3173
g69
I5
ssg70
g3167
sg63
(lp3174
g56
(g65
g58
NtRp3175
(dp3176
g61
(dp3177
g69
I4
ssg70
Nsg63
(lp3178
sbasbasbasbag56
(g72
g58
NtRp3179
(dp3180
g61
(dp3181
sg70
g2451
sg63
(lp3182
g56
(g77
g58
NtRp3183
(dp3184
g61
(dp3185
g81
g82
ssg70
g3179
sg63
(lp3186
S'session_filename'
p3187
asbag56
(g77
g58
NtRp3188
(dp3189
g61
(dp3190
g88
g89
ssg70
g3179
sg63
(lp3191
S':'
asbag56
(g77
g58
NtRp3192
(dp3193
g61
(dp3194
sg70
g3179
sg63
(lp3195
g56
(g57
g58
NtRp3196
(dp3197
g61
(dp3198
g69
I5
ssg70
g3192
sg63
(lp3199
S'/Users/jyr/Desarrollo/personal/MNPP/htdocs/web2py/applications/front/sessions/127.0.0.1-29da382c-571a-4cfc-8509-66f3aa8f7e88'
p3200
asbasbasbag56
(g72
g58
NtRp3201
(dp3202
g61
(dp3203
sg70
g2451
sg63
(lp3204
g56
(g77
g58
NtRp3205
(dp3206
g61
(dp3207
g81
g82
ssg70
g3201
sg63
(lp3208
S'session_id'
p3209
asbag56
(g77
g58
NtRp3210
(dp3211
g61
(dp3212
g88
g89
ssg70
g3201
sg63
(lp3213
S':'
asbag56
(g77
g58
NtRp3214
(dp3215
g61
(dp3216
sg70
g3201
sg63
(lp3217
g56
(g57
g58
NtRp3218
(dp3219
g61
(dp3220
g69
I5
ssg70
g3214
sg63
(lp3221
S'127.0.0.1-29da382c-571a-4cfc-8509-66f3aa8f7e88'
p3222
asbasbasbag56
(g72
g58
NtRp3223
(dp3224
g61
(dp3225
sg70
g2451
sg63
(lp3226
g56
(g77
g58
NtRp3227
(dp3228
g61
(dp3229
g81
g82
ssg70
g3223
sg63
(lp3230
S'session_id_name'
p3231
asbag56
(g77
g58
NtRp3232
(dp3233
g61
(dp3234
g88
g89
ssg70
g3223
sg63
(lp3235
S':'
asbag56
(g77
g58
NtRp3236
(dp3237
g61
(dp3238
sg70
g3223
sg63
(lp3239
g56
(g57
g58
NtRp3240
(dp3241
g61
(dp3242
g69
I5
ssg70
g3236
sg63
(lp3243
g2508
asbasbasbag56
(g72
g58
NtRp3244
(dp3245
g61
(dp3246
sg70
g2451
sg63
(lp3247
g56
(g77
g58
NtRp3248
(dp3249
g61
(dp3250
g81
g82
ssg70
g3244
sg63
(lp3251
S'session_new'
p3252
asbag56
(g77
g58
NtRp3253
(dp3254
g61
(dp3255
g88
g89
ssg70
g3244
sg63
(lp3256
S':'
asbag56
(g77
g58
NtRp3257
(dp3258
g61
(dp3259
sg70
g3244
sg63
(lp3260
g56
(g57
g58
NtRp3261
(dp3262
g61
(dp3263
g69
I5
ssg70
g3257
sg63
(lp3264
g1483
asbasbasbag56
(g72
g58
NtRp3265
(dp3266
g61
(dp3267
sg70
g2451
sg63
(lp3268
g56
(g77
g58
NtRp3269
(dp3270
g61
(dp3271
g81
g82
ssg70
g3265
sg63
(lp3272
S'status'
p3273
asbag56
(g77
g58
NtRp3274
(dp3275
g61
(dp3276
g88
g89
ssg70
g3265
sg63
(lp3277
S':'
asbag56
(g77
g58
NtRp3278
(dp3279
g61
(dp3280
sg70
g3265
sg63
(lp3281
g56
(g57
g58
NtRp3282
(dp3283
g61
(dp3284
g69
I5
ssg70
g3278
sg63
(lp3285
S'200'
p3286
asbasbasbag56
(g72
g58
NtRp3287
(dp3288
g61
(dp3289
sg70
g2451
sg63
(lp3290
g56
(g77
g58
NtRp3291
(dp3292
g61
(dp3293
g81
g82
ssg70
g3287
sg63
(lp3294
S'subtitle'
p3295
asbag56
(g77
g58
NtRp3296
(dp3297
g61
(dp3298
g88
g89
ssg70
g3287
sg63
(lp3299
S':'
asbag56
(g77
g58
NtRp3300
(dp3301
g61
(dp3302
sg70
g3287
sg63
(lp3303
g56
(g57
g58
NtRp3304
(dp3305
g61
(dp3306
g69
I5
ssg70
g3300
sg63
(lp3307
S'app base'
p3308
asbasbasbag56
(g72
g58
NtRp3309
(dp3310
g61
(dp3311
sg70
g2451
sg63
(lp3312
g56
(g77
g58
NtRp3313
(dp3314
g61
(dp3315
g81
g82
ssg70
g3309
sg63
(lp3316
S'title'
p3317
asbag56
(g77
g58
NtRp3318
(dp3319
g61
(dp3320
g88
g89
ssg70
g3309
sg63
(lp3321
S':'
asbag56
(g77
g58
NtRp3322
(dp3323
g61
(dp3324
sg70
g3309
sg63
(lp3325
g56
(g57
g58
NtRp3326
(dp3327
g61
(dp3328
g69
I5
ssg70
g3322
sg63
(lp3329
S'Base'
p3330
asbasbasbag56
(g72
g58
NtRp3331
(dp3332
g61
(dp3333
sg70
g2451
sg63
(lp3334
g56
(g77
g58
NtRp3335
(dp3336
g61
(dp3337
g81
g82
ssg70
g3331
sg63
(lp3338
g1582
asbag56
(g77
g58
NtRp3339
(dp3340
g61
(dp3341
g88
g89
ssg70
g3331
sg63
(lp3342
S':'
asbag56
(g77
g58
NtRp3343
(dp3344
g61
(dp3345
sg70
g3331
sg63
(lp3346
g56
(g57
g58
NtRp3347
(dp3348
g61
(dp3349
g69
I5
ssg70
g3343
sg63
(lp3350
g1595
asbasbasbag56
(g72
g58
NtRp3351
(dp3352
g61
(dp3353
sg70
g2451
sg63
(lp3354
g56
(g77
g58
NtRp3355
(dp3356
g61
(dp3357
g81
g82
ssg70
g3351
sg63
(lp3358
S'view'
p3359
asbag56
(g77
g58
NtRp3360
(dp3361
g61
(dp3362
g88
g89
ssg70
g3351
sg63
(lp3363
S':'
asbag56
(g77
g58
NtRp3364
(dp3365
g61
(dp3366
sg70
g3351
sg63
(lp3367
g56
(g57
g58
NtRp3368
(dp3369
g61
(dp3370
g69
I5
ssg70
g3364
sg63
(lp3371
S'default/index.html'
p3372
asbasbasbasbasbsS'locals'
p3373
(dp3374
S'uris'
p3375
S"['mysql://root:@localhost/web2py']"
p3376
sg23
S"(<DAL {'_lastsql': '', '_db_codec': 'UTF-8', '_ti.../web2py', '_pool_size': 0, '_common_fields': []}>, 'mysql://root:@localhost/web2py', 0, None, 'UTF-8', <function <lambda>>, {'charset': 'utf8', 'db': 'web2py', 'host': 'localhost', 'passwd': '', 'port': 3306, 'user': 'root'}, {})"
p3377
sS'fake_migrate_all'
p3378
g99
sS'migrate'
p3379
g1483
sS'driver_args'
p3380
S'None'
p3381
sS'k'
S'4'
sS'adapter_args'
p3382
g44
sS'auto_import'
p3383
g99
sS'uri'
p3384
S"'mysql://root:@localhost/web2py'"
p3385
sS'migrate_enabled'
p3386
g1483
sS'fake_migrate'
p3387
g99
sS'check_reserved'
p3388
S'None'
p3389
sS'attempts'
p3390
S'5'
sS'connected'
p3391
g99
sS'error'
p3392
S'OperationalError(2003, "Can\'t connect to MySQL server on \'localhost\' (61)")'
p3393
sS'pool_size'
p3394
S'0'
sg1380
S'None'
p3395
sS'decode_credentials'
p3396
g99
sS'credential_decoder'
p3397
S'<function <lambda>>'
p3398
sS'self'
p3399
S"<DAL {'_lastsql': '', '_db_codec': 'UTF-8', '_ti.../web2py', '_pool_size': 0, '_common_fields': []}>"
p3400
sS'db_codec'
p3401
S"'UTF-8'"
p3402
sssS'traceback'
p3403
S'Traceback (most recent call last):\n  File "/Applications/MNPP/Library/python26/lib/python2.6/site-packages/gluon/restricted.py", line 184, in restricted\n    exec ccode in environment\n  File "/Users/jyr/Desarrollo/personal/MNPP/htdocs/web2py/applications/front/models/db.py", line 7, in <module>\n    db = DAL(\'mysql://root:@localhost/web2py\')\n  File "/Applications/MNPP/Library/python26/lib/python2.6/site-packages/gluon/dal.py", line 3886, in __init__\n    raise RuntimeError, "Failure to connect, tried %d times:\\n%s" % (attempts, error)\nRuntimeError: Failure to connect, tried 5 times:\n(2003, "Can\'t connect to MySQL server on \'localhost\' (61)")\n'
p3404
s.